ARM GAS  C:\Users\sergio\AppData\Local\Temp\cckIYZNb.s 			page 1


   1              		.syntax unified
   2              		.cpu cortex-m0
   3              		.fpu softvfp
   4              		.eabi_attribute 20, 1
   5              		.eabi_attribute 21, 1
   6              		.eabi_attribute 23, 3
   7              		.eabi_attribute 24, 1
   8              		.eabi_attribute 25, 1
   9              		.eabi_attribute 26, 1
  10              		.eabi_attribute 30, 1
  11              		.eabi_attribute 34, 0
  12              		.eabi_attribute 18, 4
  13              		.thumb
  14              		.syntax unified
  15              		.file	"Volt_Regulator.c"
  16              		.text
  17              	.Ltext0:
  18              		.cfi_sections	.debug_frame
  19              		.section	.text.Volt_Regulator_Init,"ax",%progbits
  20              		.align	2
  21              		.global	Volt_Regulator_Init
  22              		.code	16
  23              		.thumb_func
  24              		.type	Volt_Regulator_Init, %function
  25              	Volt_Regulator_Init:
  26              	.LFB3:
  27              		.file 1 "Generated_Source\\PSoC4\\Volt_Regulator.c"
   1:Generated_Source\PSoC4/Volt_Regulator.c **** /*******************************************************************************
   2:Generated_Source\PSoC4/Volt_Regulator.c **** * File Name: Volt_Regulator.c
   3:Generated_Source\PSoC4/Volt_Regulator.c **** * Version 2.50
   4:Generated_Source\PSoC4/Volt_Regulator.c **** *
   5:Generated_Source\PSoC4/Volt_Regulator.c **** * Description:
   6:Generated_Source\PSoC4/Volt_Regulator.c **** *  This file provides the source code to the API for the Sequencing Successive
   7:Generated_Source\PSoC4/Volt_Regulator.c **** *  Approximation ADC Component Component.
   8:Generated_Source\PSoC4/Volt_Regulator.c **** *
   9:Generated_Source\PSoC4/Volt_Regulator.c **** * Note:
  10:Generated_Source\PSoC4/Volt_Regulator.c **** *
  11:Generated_Source\PSoC4/Volt_Regulator.c **** ********************************************************************************
  12:Generated_Source\PSoC4/Volt_Regulator.c **** * Copyright 2008-2017, Cypress Semiconductor Corporation.  All rights reserved.
  13:Generated_Source\PSoC4/Volt_Regulator.c **** * You may use this file only in accordance with the license, terms, conditions,
  14:Generated_Source\PSoC4/Volt_Regulator.c **** * disclaimers, and limitations in the end user license agreement accompanying
  15:Generated_Source\PSoC4/Volt_Regulator.c **** * the software package with which this file was provided.
  16:Generated_Source\PSoC4/Volt_Regulator.c **** *******************************************************************************/
  17:Generated_Source\PSoC4/Volt_Regulator.c **** 
  18:Generated_Source\PSoC4/Volt_Regulator.c **** #include "Volt_Regulator.h"
  19:Generated_Source\PSoC4/Volt_Regulator.c **** 
  20:Generated_Source\PSoC4/Volt_Regulator.c **** 
  21:Generated_Source\PSoC4/Volt_Regulator.c **** /***************************************
  22:Generated_Source\PSoC4/Volt_Regulator.c **** * Global data allocation
  23:Generated_Source\PSoC4/Volt_Regulator.c **** ***************************************/
  24:Generated_Source\PSoC4/Volt_Regulator.c **** uint8 Volt_Regulator_initVar = 0u;
  25:Generated_Source\PSoC4/Volt_Regulator.c **** volatile int16 Volt_Regulator_offset[Volt_Regulator_TOTAL_CHANNELS_NUM];
  26:Generated_Source\PSoC4/Volt_Regulator.c **** volatile int32 Volt_Regulator_countsPer10Volt[Volt_Regulator_TOTAL_CHANNELS_NUM];   /* Gain compens
  27:Generated_Source\PSoC4/Volt_Regulator.c **** 
  28:Generated_Source\PSoC4/Volt_Regulator.c **** 
  29:Generated_Source\PSoC4/Volt_Regulator.c **** /***************************************
  30:Generated_Source\PSoC4/Volt_Regulator.c **** * Local data allocation
ARM GAS  C:\Users\sergio\AppData\Local\Temp\cckIYZNb.s 			page 2


  31:Generated_Source\PSoC4/Volt_Regulator.c **** ***************************************/
  32:Generated_Source\PSoC4/Volt_Regulator.c **** /* Channels configuration generated by customiser */
  33:Generated_Source\PSoC4/Volt_Regulator.c **** static const uint32 CYCODE Volt_Regulator_channelsConfig[] = { 0x00000002u };
  34:Generated_Source\PSoC4/Volt_Regulator.c **** 
  35:Generated_Source\PSoC4/Volt_Regulator.c **** 
  36:Generated_Source\PSoC4/Volt_Regulator.c **** /*******************************************************************************
  37:Generated_Source\PSoC4/Volt_Regulator.c **** * Function Name: Volt_Regulator_Start
  38:Generated_Source\PSoC4/Volt_Regulator.c **** ********************************************************************************
  39:Generated_Source\PSoC4/Volt_Regulator.c **** *
  40:Generated_Source\PSoC4/Volt_Regulator.c **** * Summary:
  41:Generated_Source\PSoC4/Volt_Regulator.c **** *  Performs all required initialization for this component
  42:Generated_Source\PSoC4/Volt_Regulator.c **** *  and enables the power. The power will be set to the appropriate
  43:Generated_Source\PSoC4/Volt_Regulator.c **** *  power based on the clock frequency.
  44:Generated_Source\PSoC4/Volt_Regulator.c **** *
  45:Generated_Source\PSoC4/Volt_Regulator.c **** * Parameters:
  46:Generated_Source\PSoC4/Volt_Regulator.c **** *  None.
  47:Generated_Source\PSoC4/Volt_Regulator.c **** *
  48:Generated_Source\PSoC4/Volt_Regulator.c **** * Return:
  49:Generated_Source\PSoC4/Volt_Regulator.c **** *  None.
  50:Generated_Source\PSoC4/Volt_Regulator.c **** *
  51:Generated_Source\PSoC4/Volt_Regulator.c **** * Global variables:
  52:Generated_Source\PSoC4/Volt_Regulator.c **** *  The Volt_Regulator_initVar variable is used to indicate when/if initial
  53:Generated_Source\PSoC4/Volt_Regulator.c **** *  configuration of this component has happened. The variable is initialized to
  54:Generated_Source\PSoC4/Volt_Regulator.c **** *  zero and set to 1 the first time ADC_Start() is called. This allows for
  55:Generated_Source\PSoC4/Volt_Regulator.c **** *  component Re-Start without re-initialization in all subsequent calls to the
  56:Generated_Source\PSoC4/Volt_Regulator.c **** *  Volt_Regulator_Start() routine.
  57:Generated_Source\PSoC4/Volt_Regulator.c **** *  If re-initialization of the component is required the variable should be set
  58:Generated_Source\PSoC4/Volt_Regulator.c **** *  to zero before call of Volt_Regulator_Start() routine, or the user may call
  59:Generated_Source\PSoC4/Volt_Regulator.c **** *  Volt_Regulator_Init() and Volt_Regulator_Enable() as done in the
  60:Generated_Source\PSoC4/Volt_Regulator.c **** *  Volt_Regulator_Start() routine.
  61:Generated_Source\PSoC4/Volt_Regulator.c **** *
  62:Generated_Source\PSoC4/Volt_Regulator.c **** *******************************************************************************/
  63:Generated_Source\PSoC4/Volt_Regulator.c **** void Volt_Regulator_Start(void)
  64:Generated_Source\PSoC4/Volt_Regulator.c **** {
  65:Generated_Source\PSoC4/Volt_Regulator.c ****     /* If not Initialized then initialize all required hardware and software */
  66:Generated_Source\PSoC4/Volt_Regulator.c ****     if(Volt_Regulator_initVar == 0u)
  67:Generated_Source\PSoC4/Volt_Regulator.c ****     {
  68:Generated_Source\PSoC4/Volt_Regulator.c ****         Volt_Regulator_Init();
  69:Generated_Source\PSoC4/Volt_Regulator.c ****         Volt_Regulator_initVar = 1u;
  70:Generated_Source\PSoC4/Volt_Regulator.c ****     }
  71:Generated_Source\PSoC4/Volt_Regulator.c ****     Volt_Regulator_Enable();
  72:Generated_Source\PSoC4/Volt_Regulator.c **** }
  73:Generated_Source\PSoC4/Volt_Regulator.c **** 
  74:Generated_Source\PSoC4/Volt_Regulator.c **** 
  75:Generated_Source\PSoC4/Volt_Regulator.c **** /*******************************************************************************
  76:Generated_Source\PSoC4/Volt_Regulator.c **** * Function Name: Volt_Regulator_Init
  77:Generated_Source\PSoC4/Volt_Regulator.c **** ********************************************************************************
  78:Generated_Source\PSoC4/Volt_Regulator.c **** *
  79:Generated_Source\PSoC4/Volt_Regulator.c **** * Summary:
  80:Generated_Source\PSoC4/Volt_Regulator.c **** *  Initialize component's parameters to the parameters set by user in the
  81:Generated_Source\PSoC4/Volt_Regulator.c **** *  customizer of the component placed onto schematic. Usually called in
  82:Generated_Source\PSoC4/Volt_Regulator.c **** *  Volt_Regulator_Start().
  83:Generated_Source\PSoC4/Volt_Regulator.c **** *
  84:Generated_Source\PSoC4/Volt_Regulator.c **** * Parameters:
  85:Generated_Source\PSoC4/Volt_Regulator.c **** *  None.
  86:Generated_Source\PSoC4/Volt_Regulator.c **** *
  87:Generated_Source\PSoC4/Volt_Regulator.c **** * Return:
ARM GAS  C:\Users\sergio\AppData\Local\Temp\cckIYZNb.s 			page 3


  88:Generated_Source\PSoC4/Volt_Regulator.c **** *  None.
  89:Generated_Source\PSoC4/Volt_Regulator.c **** *
  90:Generated_Source\PSoC4/Volt_Regulator.c **** * Global variables:
  91:Generated_Source\PSoC4/Volt_Regulator.c **** *  The Volt_Regulator_offset variable is initialized.
  92:Generated_Source\PSoC4/Volt_Regulator.c **** *
  93:Generated_Source\PSoC4/Volt_Regulator.c **** *******************************************************************************/
  94:Generated_Source\PSoC4/Volt_Regulator.c **** void Volt_Regulator_Init(void)
  95:Generated_Source\PSoC4/Volt_Regulator.c **** {
  28              		.loc 1 95 0
  29              		.cfi_startproc
  30              		@ args = 0, pretend = 0, frame = 0
  31              		@ frame_needed = 0, uses_anonymous_args = 0
  32 0000 70B5     		push	{r4, r5, r6, lr}
  33              		.cfi_def_cfa_offset 16
  34              		.cfi_offset 4, -16
  35              		.cfi_offset 5, -12
  36              		.cfi_offset 6, -8
  37              		.cfi_offset 14, -4
  96:Generated_Source\PSoC4/Volt_Regulator.c ****     uint32 chNum;
  97:Generated_Source\PSoC4/Volt_Regulator.c ****     uint32 tmpRegVal;
  98:Generated_Source\PSoC4/Volt_Regulator.c ****     int32 counts;
  99:Generated_Source\PSoC4/Volt_Regulator.c **** 
 100:Generated_Source\PSoC4/Volt_Regulator.c ****     #if(Volt_Regulator_TOTAL_CHANNELS_NUM > 1u)
 101:Generated_Source\PSoC4/Volt_Regulator.c ****         static const uint8 CYCODE Volt_Regulator_InputsPlacement[] =
 102:Generated_Source\PSoC4/Volt_Regulator.c ****         {
 103:Generated_Source\PSoC4/Volt_Regulator.c ****             (uint8)(Volt_Regulator_cy_psoc4_sarmux_8__CH_0_PORT << 4u) |
 104:Generated_Source\PSoC4/Volt_Regulator.c ****             (uint8)Volt_Regulator_cy_psoc4_sarmux_8__CH_0_PIN
 105:Generated_Source\PSoC4/Volt_Regulator.c ****             ,(uint8)(Volt_Regulator_cy_psoc4_sarmux_8__CH_1_PORT << 4u) |
 106:Generated_Source\PSoC4/Volt_Regulator.c ****              (uint8)Volt_Regulator_cy_psoc4_sarmux_8__CH_1_PIN
 107:Generated_Source\PSoC4/Volt_Regulator.c ****             #if(Volt_Regulator_TOTAL_CHANNELS_NUM > 2u)
 108:Generated_Source\PSoC4/Volt_Regulator.c ****                 ,(uint8)(Volt_Regulator_cy_psoc4_sarmux_8__CH_2_PORT << 4u) |
 109:Generated_Source\PSoC4/Volt_Regulator.c ****                  (uint8)Volt_Regulator_cy_psoc4_sarmux_8__CH_2_PIN
 110:Generated_Source\PSoC4/Volt_Regulator.c ****             #endif /* End Volt_Regulator_TOTAL_CHANNELS_NUM > 2u */
 111:Generated_Source\PSoC4/Volt_Regulator.c ****             #if(Volt_Regulator_TOTAL_CHANNELS_NUM > 3u)
 112:Generated_Source\PSoC4/Volt_Regulator.c ****                 ,(uint8)(Volt_Regulator_cy_psoc4_sarmux_8__CH_3_PORT << 4u) |
 113:Generated_Source\PSoC4/Volt_Regulator.c ****                  (uint8)Volt_Regulator_cy_psoc4_sarmux_8__CH_3_PIN
 114:Generated_Source\PSoC4/Volt_Regulator.c ****             #endif /* End Volt_Regulator_TOTAL_CHANNELS_NUM > 3u */
 115:Generated_Source\PSoC4/Volt_Regulator.c ****             #if(Volt_Regulator_TOTAL_CHANNELS_NUM > 4u)
 116:Generated_Source\PSoC4/Volt_Regulator.c ****                 ,(uint8)(Volt_Regulator_cy_psoc4_sarmux_8__CH_4_PORT << 4u) |
 117:Generated_Source\PSoC4/Volt_Regulator.c ****                  (uint8)Volt_Regulator_cy_psoc4_sarmux_8__CH_4_PIN
 118:Generated_Source\PSoC4/Volt_Regulator.c ****             #endif /* End Volt_Regulator_TOTAL_CHANNELS_NUM > 4u */
 119:Generated_Source\PSoC4/Volt_Regulator.c ****             #if(Volt_Regulator_TOTAL_CHANNELS_NUM > 5u)
 120:Generated_Source\PSoC4/Volt_Regulator.c ****                 ,(uint8)(Volt_Regulator_cy_psoc4_sarmux_8__CH_5_PORT << 4u) |
 121:Generated_Source\PSoC4/Volt_Regulator.c ****                  (uint8)Volt_Regulator_cy_psoc4_sarmux_8__CH_5_PIN
 122:Generated_Source\PSoC4/Volt_Regulator.c ****             #endif /* End Volt_Regulator_TOTAL_CHANNELS_NUM > 5u */
 123:Generated_Source\PSoC4/Volt_Regulator.c ****             #if(Volt_Regulator_TOTAL_CHANNELS_NUM > 6u)
 124:Generated_Source\PSoC4/Volt_Regulator.c ****                 ,(uint8)(Volt_Regulator_cy_psoc4_sarmux_8__CH_6_PORT << 4u) |
 125:Generated_Source\PSoC4/Volt_Regulator.c ****                  (uint8)Volt_Regulator_cy_psoc4_sarmux_8__CH_6_PIN
 126:Generated_Source\PSoC4/Volt_Regulator.c ****             #endif /* End Volt_Regulator_TOTAL_CHANNELS_NUM > 6u */
 127:Generated_Source\PSoC4/Volt_Regulator.c ****             #if(Volt_Regulator_TOTAL_CHANNELS_NUM > 7u)
 128:Generated_Source\PSoC4/Volt_Regulator.c ****                 ,(uint8)(Volt_Regulator_cy_psoc4_sarmux_8__CH_7_PORT << 4u) |
 129:Generated_Source\PSoC4/Volt_Regulator.c ****                  (uint8)Volt_Regulator_cy_psoc4_sarmux_8__CH_7_PIN
 130:Generated_Source\PSoC4/Volt_Regulator.c ****             #endif /* End Volt_Regulator_TOTAL_CHANNELS_NUM > 7u */
 131:Generated_Source\PSoC4/Volt_Regulator.c ****             #if(Volt_Regulator_TOTAL_CHANNELS_NUM > 8u)
 132:Generated_Source\PSoC4/Volt_Regulator.c ****                 ,(uint8)(Volt_Regulator_cy_psoc4_sarmux_8__CH_8_PORT << 4u) |
 133:Generated_Source\PSoC4/Volt_Regulator.c ****                  (uint8)Volt_Regulator_cy_psoc4_sarmux_8__CH_8_PIN
 134:Generated_Source\PSoC4/Volt_Regulator.c ****             #endif /* End Volt_Regulator_TOTAL_CHANNELS_NUM > 8u */
ARM GAS  C:\Users\sergio\AppData\Local\Temp\cckIYZNb.s 			page 4


 135:Generated_Source\PSoC4/Volt_Regulator.c ****             #if(Volt_Regulator_TOTAL_CHANNELS_NUM > 9u)
 136:Generated_Source\PSoC4/Volt_Regulator.c ****                 ,(uint8)(Volt_Regulator_cy_psoc4_sarmux_8__CH_9_PORT << 4u) |
 137:Generated_Source\PSoC4/Volt_Regulator.c ****                  (uint8)Volt_Regulator_cy_psoc4_sarmux_8__CH_9_PIN
 138:Generated_Source\PSoC4/Volt_Regulator.c ****             #endif /* End Volt_Regulator_TOTAL_CHANNELS_NUM > 9u */
 139:Generated_Source\PSoC4/Volt_Regulator.c ****             #if(Volt_Regulator_TOTAL_CHANNELS_NUM > 10u)
 140:Generated_Source\PSoC4/Volt_Regulator.c ****                 ,(uint8)(Volt_Regulator_cy_psoc4_sarmux_8__CH_10_PORT << 4u) |
 141:Generated_Source\PSoC4/Volt_Regulator.c ****                  (uint8)Volt_Regulator_cy_psoc4_sarmux_8__CH_10_PIN
 142:Generated_Source\PSoC4/Volt_Regulator.c ****             #endif /* End Volt_Regulator_TOTAL_CHANNELS_NUM > 10u */
 143:Generated_Source\PSoC4/Volt_Regulator.c ****             #if(Volt_Regulator_TOTAL_CHANNELS_NUM > 11u)
 144:Generated_Source\PSoC4/Volt_Regulator.c ****                 ,(uint8)(Volt_Regulator_cy_psoc4_sarmux_8__CH_11_PORT << 4u) |
 145:Generated_Source\PSoC4/Volt_Regulator.c ****                  (uint8)Volt_Regulator_cy_psoc4_sarmux_8__CH_11_PIN
 146:Generated_Source\PSoC4/Volt_Regulator.c ****             #endif /* End Volt_Regulator_TOTAL_CHANNELS_NUM > 11u */
 147:Generated_Source\PSoC4/Volt_Regulator.c ****             #if(Volt_Regulator_TOTAL_CHANNELS_NUM > 12u)
 148:Generated_Source\PSoC4/Volt_Regulator.c ****                 ,(uint8)(Volt_Regulator_cy_psoc4_sarmux_8__CH_12_PORT << 4u) |
 149:Generated_Source\PSoC4/Volt_Regulator.c ****                  (uint8)Volt_Regulator_cy_psoc4_sarmux_8__CH_12_PIN
 150:Generated_Source\PSoC4/Volt_Regulator.c ****             #endif /* End Volt_Regulator_TOTAL_CHANNELS_NUM > 12u */
 151:Generated_Source\PSoC4/Volt_Regulator.c ****             #if(Volt_Regulator_TOTAL_CHANNELS_NUM > 13u)
 152:Generated_Source\PSoC4/Volt_Regulator.c ****                 ,(uint8)(Volt_Regulator_cy_psoc4_sarmux_8__CH_13_PORT << 4u) |
 153:Generated_Source\PSoC4/Volt_Regulator.c ****                  (uint8)Volt_Regulator_cy_psoc4_sarmux_8__CH_13_PIN
 154:Generated_Source\PSoC4/Volt_Regulator.c ****             #endif /* End Volt_Regulator_TOTAL_CHANNELS_NUM > 13u */
 155:Generated_Source\PSoC4/Volt_Regulator.c ****             #if(Volt_Regulator_TOTAL_CHANNELS_NUM > 14u)
 156:Generated_Source\PSoC4/Volt_Regulator.c ****                 ,(uint8)(Volt_Regulator_cy_psoc4_sarmux_8__CH_14_PORT << 4u) |
 157:Generated_Source\PSoC4/Volt_Regulator.c ****                  (uint8)Volt_Regulator_cy_psoc4_sarmux_8__CH_14_PIN
 158:Generated_Source\PSoC4/Volt_Regulator.c ****             #endif /* End Volt_Regulator_TOTAL_CHANNELS_NUM > 14u */
 159:Generated_Source\PSoC4/Volt_Regulator.c ****             #if(Volt_Regulator_TOTAL_CHANNELS_NUM > 15u)
 160:Generated_Source\PSoC4/Volt_Regulator.c ****                 ,(uint8)(Volt_Regulator_cy_psoc4_sarmux_8__CH_15_PORT << 4u) |
 161:Generated_Source\PSoC4/Volt_Regulator.c ****                  (uint8)Volt_Regulator_cy_psoc4_sarmux_8__CH_15_PIN
 162:Generated_Source\PSoC4/Volt_Regulator.c ****             #endif /* End Volt_Regulator_TOTAL_CHANNELS_NUM > 15u */
 163:Generated_Source\PSoC4/Volt_Regulator.c ****             #if(Volt_Regulator_TOTAL_CHANNELS_NUM > 16u)
 164:Generated_Source\PSoC4/Volt_Regulator.c ****                 ,(uint8)(Volt_Regulator_cy_psoc4_sarmux_8__CH_16_PORT << 4u) |
 165:Generated_Source\PSoC4/Volt_Regulator.c ****                  (uint8)Volt_Regulator_cy_psoc4_sarmux_8__CH_16_PIN
 166:Generated_Source\PSoC4/Volt_Regulator.c ****             #endif /* End Volt_Regulator_TOTAL_CHANNELS_NUM > 16u */
 167:Generated_Source\PSoC4/Volt_Regulator.c ****         };
 168:Generated_Source\PSoC4/Volt_Regulator.c ****     #endif /* End Volt_Regulator_TOTAL_CHANNELS_NUM > 1u */
 169:Generated_Source\PSoC4/Volt_Regulator.c **** 
 170:Generated_Source\PSoC4/Volt_Regulator.c ****     #if(Volt_Regulator_IRQ_REMOVE == 0u)
 171:Generated_Source\PSoC4/Volt_Regulator.c ****         /* Start and set interrupt vector */
 172:Generated_Source\PSoC4/Volt_Regulator.c ****         CyIntSetPriority(Volt_Regulator_INTC_NUMBER, Volt_Regulator_INTC_PRIOR_NUMBER);
  38              		.loc 1 172 0
  39 0002 0321     		movs	r1, #3
  40 0004 0F20     		movs	r0, #15
  41 0006 FFF7FEFF 		bl	CyIntSetPriority
  42              	.LVL0:
 173:Generated_Source\PSoC4/Volt_Regulator.c ****         (void)CyIntSetVector(Volt_Regulator_INTC_NUMBER, &Volt_Regulator_ISR);
  43              		.loc 1 173 0
  44 000a 2749     		ldr	r1, .L6
  45 000c 0F20     		movs	r0, #15
  46 000e FFF7FEFF 		bl	CyIntSetVector
  47              	.LVL1:
 174:Generated_Source\PSoC4/Volt_Regulator.c ****     #endif   /* End Volt_Regulator_IRQ_REMOVE */
 175:Generated_Source\PSoC4/Volt_Regulator.c **** 
 176:Generated_Source\PSoC4/Volt_Regulator.c ****     /* Init SAR and MUX registers */
 177:Generated_Source\PSoC4/Volt_Regulator.c ****     Volt_Regulator_SAR_CHAN_EN_REG = Volt_Regulator_DEFAULT_EN_CHANNELS;
  48              		.loc 1 177 0
  49 0012 0122     		movs	r2, #1
  50 0014 254B     		ldr	r3, .L6+4
  51 0016 1A60     		str	r2, [r3]
ARM GAS  C:\Users\sergio\AppData\Local\Temp\cckIYZNb.s 			page 5


 178:Generated_Source\PSoC4/Volt_Regulator.c ****     Volt_Regulator_SAR_CTRL_REG |= Volt_Regulator_DEFAULT_CTRL_REG_CFG | 
 179:Generated_Source\PSoC4/Volt_Regulator.c ****         /* Enable the SAR internal pump when global pump is enabled */
 180:Generated_Source\PSoC4/Volt_Regulator.c ****         (((Volt_Regulator_PUMP_CTRL_REG & Volt_Regulator_PUMP_CTRL_ENABLED) != 0u) ? 
  52              		.loc 1 180 0
  53 0018 254B     		ldr	r3, .L6+8
  54 001a 1B68     		ldr	r3, [r3]
 178:Generated_Source\PSoC4/Volt_Regulator.c ****     Volt_Regulator_SAR_CTRL_REG |= Volt_Regulator_DEFAULT_CTRL_REG_CFG | 
  55              		.loc 1 178 0
  56 001c 002B     		cmp	r3, #0
  57 001e 01DA     		bge	.L5
  58 0020 2449     		ldr	r1, .L6+12
  59 0022 00E0     		b	.L2
  60              	.L5:
  61 0024 2449     		ldr	r1, .L6+16
  62              	.L2:
 178:Generated_Source\PSoC4/Volt_Regulator.c ****     Volt_Regulator_SAR_CTRL_REG |= Volt_Regulator_DEFAULT_CTRL_REG_CFG | 
  63              		.loc 1 178 0 is_stmt 0 discriminator 4
  64 0026 254A     		ldr	r2, .L6+20
  65 0028 1368     		ldr	r3, [r2]
  66 002a 0B43     		orrs	r3, r1
  67 002c 1360     		str	r3, [r2]
 181:Generated_Source\PSoC4/Volt_Regulator.c ****         Volt_Regulator_BOOSTPUMP_EN : 0u);
 182:Generated_Source\PSoC4/Volt_Regulator.c ****     Volt_Regulator_SAR_SAMPLE_CTRL_REG = Volt_Regulator_DEFAULT_SAMPLE_CTRL_REG_CFG;
  68              		.loc 1 182 0 is_stmt 1 discriminator 4
  69 002e 244A     		ldr	r2, .L6+24
  70 0030 244B     		ldr	r3, .L6+28
  71 0032 1A60     		str	r2, [r3]
 183:Generated_Source\PSoC4/Volt_Regulator.c ****     Volt_Regulator_SAR_RANGE_THRES_REG = Volt_Regulator_DEFAULT_RANGE_THRES_REG_CFG;
  72              		.loc 1 183 0 discriminator 4
  73 0034 244A     		ldr	r2, .L6+32
  74 0036 254B     		ldr	r3, .L6+36
  75 0038 1A60     		str	r2, [r3]
 184:Generated_Source\PSoC4/Volt_Regulator.c ****     Volt_Regulator_SAR_RANGE_COND_REG  = Volt_Regulator_COMPARE_MODE;
  76              		.loc 1 184 0 discriminator 4
  77 003a 0023     		movs	r3, #0
  78 003c 244A     		ldr	r2, .L6+40
  79 003e 1360     		str	r3, [r2]
 185:Generated_Source\PSoC4/Volt_Regulator.c ****     Volt_Regulator_SAR_SAMPLE_TIME01_REG = Volt_Regulator_DEFAULT_SAMPLE_TIME01_REG_CFG;
  80              		.loc 1 185 0 discriminator 4
  81 0040 244A     		ldr	r2, .L6+44
  82 0042 2549     		ldr	r1, .L6+48
  83 0044 0A60     		str	r2, [r1]
 186:Generated_Source\PSoC4/Volt_Regulator.c ****     Volt_Regulator_SAR_SAMPLE_TIME23_REG = Volt_Regulator_DEFAULT_SAMPLE_TIME23_REG_CFG;
  84              		.loc 1 186 0 discriminator 4
  85 0046 2549     		ldr	r1, .L6+52
  86 0048 0A60     		str	r2, [r1]
 187:Generated_Source\PSoC4/Volt_Regulator.c ****     
 188:Generated_Source\PSoC4/Volt_Regulator.c ****     /* Connect Vm to VSSA when even one channel is single-ended or multiple channels configured */
 189:Generated_Source\PSoC4/Volt_Regulator.c ****     #if(Volt_Regulator_DEFAULT_MUX_SWITCH0 != 0u)
 190:Generated_Source\PSoC4/Volt_Regulator.c ****         Volt_Regulator_MUX_SWITCH0_REG |= Volt_Regulator_DEFAULT_MUX_SWITCH0;
  87              		.loc 1 190 0 discriminator 4
  88 004a 2549     		ldr	r1, .L6+56
  89 004c 0A68     		ldr	r2, [r1]
  90 004e 8020     		movs	r0, #128
  91 0050 4002     		lsls	r0, r0, #9
  92 0052 0243     		orrs	r2, r0
  93 0054 0A60     		str	r2, [r1]
ARM GAS  C:\Users\sergio\AppData\Local\Temp\cckIYZNb.s 			page 6


 191:Generated_Source\PSoC4/Volt_Regulator.c ****         /* Set MUX_HW_CTRL_VSSA in MUX_SWITCH_HW_CTRL when multiple channels enabled */
 192:Generated_Source\PSoC4/Volt_Regulator.c ****         #if(Volt_Regulator_TOTAL_CHANNELS_NUM > 1u)
 193:Generated_Source\PSoC4/Volt_Regulator.c ****             Volt_Regulator_MUX_SWITCH_HW_CTRL_REG |= Volt_Regulator_DEFAULT_MUX_SWITCH0;
 194:Generated_Source\PSoC4/Volt_Regulator.c ****         #endif /* Volt_Regulator_TOTAL_CHANNELS_NUM > 1u */
 195:Generated_Source\PSoC4/Volt_Regulator.c ****     #endif /*Volt_Regulator_CHANNELS_MODE !=0 */
 196:Generated_Source\PSoC4/Volt_Regulator.c **** 
 197:Generated_Source\PSoC4/Volt_Regulator.c ****     Volt_Regulator_SAR_SATURATE_INTR_MASK_REG = 0u;
  94              		.loc 1 197 0 discriminator 4
  95 0056 234A     		ldr	r2, .L6+60
  96 0058 1360     		str	r3, [r2]
 198:Generated_Source\PSoC4/Volt_Regulator.c ****     Volt_Regulator_SAR_RANGE_INTR_MASK_REG = 0u;
  97              		.loc 1 198 0 discriminator 4
  98 005a 234A     		ldr	r2, .L6+64
  99 005c 1360     		str	r3, [r2]
 199:Generated_Source\PSoC4/Volt_Regulator.c ****     Volt_Regulator_SAR_INTR_MASK_REG = Volt_Regulator_SAR_INTR_MASK;
 100              		.loc 1 199 0 discriminator 4
 101 005e 0122     		movs	r2, #1
 102 0060 224B     		ldr	r3, .L6+68
 103 0062 1A60     		str	r2, [r3]
 200:Generated_Source\PSoC4/Volt_Regulator.c **** 
 201:Generated_Source\PSoC4/Volt_Regulator.c ****     #if(Volt_Regulator_CY_SAR_IP_VER == Volt_Regulator_CY_SAR_IP_VER0)
 202:Generated_Source\PSoC4/Volt_Regulator.c ****         Volt_Regulator_ANA_TRIM_REG = Volt_Regulator_TRIM_COEF;
 203:Generated_Source\PSoC4/Volt_Regulator.c ****     #endif /* (Volt_Regulator_CY_SAR_IP_VER == Volt_Regulator_CY_SAR_IP_VER0) */
 204:Generated_Source\PSoC4/Volt_Regulator.c **** 
 205:Generated_Source\PSoC4/Volt_Regulator.c ****     /* Read and modify default configuration based on characterization */
 206:Generated_Source\PSoC4/Volt_Regulator.c ****     tmpRegVal = Volt_Regulator_SAR_DFT_CTRL_REG;
 104              		.loc 1 206 0 discriminator 4
 105 0064 224A     		ldr	r2, .L6+72
 106 0066 1168     		ldr	r1, [r2]
 107              	.LVL2:
 108 0068 224B     		ldr	r3, .L6+76
 109 006a 0B40     		ands	r3, r1
 207:Generated_Source\PSoC4/Volt_Regulator.c ****     tmpRegVal &= (uint32)~Volt_Regulator_DCEN;
 208:Generated_Source\PSoC4/Volt_Regulator.c ****     
 209:Generated_Source\PSoC4/Volt_Regulator.c ****     #if(Volt_Regulator_CY_SAR_IP_VER == Volt_Regulator_CY_SAR_IP_VER0)
 210:Generated_Source\PSoC4/Volt_Regulator.c ****         #if(Volt_Regulator_NOMINAL_CLOCK_FREQ > (Volt_Regulator_MAX_FREQUENCY / 2))
 211:Generated_Source\PSoC4/Volt_Regulator.c ****             tmpRegVal |= Volt_Regulator_SEL_CSEL_DFT_CHAR;
 212:Generated_Source\PSoC4/Volt_Regulator.c ****         #else  /* clock speed < 9 Mhz */
 213:Generated_Source\PSoC4/Volt_Regulator.c ****             tmpRegVal |= Volt_Regulator_DLY_INC;
 214:Generated_Source\PSoC4/Volt_Regulator.c ****         #endif /* clock speed > 9 Mhz */
 215:Generated_Source\PSoC4/Volt_Regulator.c ****     #else
 216:Generated_Source\PSoC4/Volt_Regulator.c ****         #if ((Volt_Regulator_DEFAULT_VREF_SEL == Volt_Regulator__INTERNAL1024) || \
 217:Generated_Source\PSoC4/Volt_Regulator.c ****              (Volt_Regulator_DEFAULT_VREF_SEL == Volt_Regulator__INTERNALVREF))
 218:Generated_Source\PSoC4/Volt_Regulator.c ****             tmpRegVal |= Volt_Regulator_DLY_INC;
 219:Generated_Source\PSoC4/Volt_Regulator.c ****         #else
 220:Generated_Source\PSoC4/Volt_Regulator.c ****             tmpRegVal |= Volt_Regulator_DCEN;
 221:Generated_Source\PSoC4/Volt_Regulator.c ****             tmpRegVal &= (uint32)~Volt_Regulator_DLY_INC;
 110              		.loc 1 221 0 discriminator 4
 111 006c 8021     		movs	r1, #128
 112              	.LVL3:
 113 006e 8905     		lsls	r1, r1, #22
 114 0070 0B43     		orrs	r3, r1
 115              	.LVL4:
 222:Generated_Source\PSoC4/Volt_Regulator.c ****         #endif /* ((Volt_Regulator_DEFAULT_VREF_SEL == Volt_Regulator__INTERNAL1024) || \
 223:Generated_Source\PSoC4/Volt_Regulator.c ****                    (Volt_Regulator_DEFAULT_VREF_SEL == Volt_Regulator__INTERNALVREF)) */
 224:Generated_Source\PSoC4/Volt_Regulator.c ****     #endif /* (Volt_Regulator_CY_SAR_IP_VER == Volt_Regulator_CY_SAR_IP_VER0) */
 225:Generated_Source\PSoC4/Volt_Regulator.c ****     
ARM GAS  C:\Users\sergio\AppData\Local\Temp\cckIYZNb.s 			page 7


 226:Generated_Source\PSoC4/Volt_Regulator.c ****     Volt_Regulator_SAR_DFT_CTRL_REG = tmpRegVal;
 116              		.loc 1 226 0 discriminator 4
 117 0072 1360     		str	r3, [r2]
 118              	.LVL5:
 227:Generated_Source\PSoC4/Volt_Regulator.c **** 
 228:Generated_Source\PSoC4/Volt_Regulator.c ****     #if(Volt_Regulator_MAX_RESOLUTION != Volt_Regulator_RESOLUTION_12)
 229:Generated_Source\PSoC4/Volt_Regulator.c ****         Volt_Regulator_WOUNDING_REG = Volt_Regulator_ALT_WOUNDING;
 230:Generated_Source\PSoC4/Volt_Regulator.c ****     #endif /* Volt_Regulator_MAX_RESOLUTION != Volt_Regulator_RESOLUTION_12 */
 231:Generated_Source\PSoC4/Volt_Regulator.c **** 
 232:Generated_Source\PSoC4/Volt_Regulator.c ****     for(chNum = 0u; chNum < Volt_Regulator_TOTAL_CHANNELS_NUM; chNum++)
 119              		.loc 1 232 0 discriminator 4
 120 0074 0023     		movs	r3, #0
 121              	.LVL6:
 122 0076 13E0     		b	.L3
 123              	.LVL7:
 124              	.L4:
 233:Generated_Source\PSoC4/Volt_Regulator.c ****     {
 234:Generated_Source\PSoC4/Volt_Regulator.c ****         tmpRegVal = (Volt_Regulator_channelsConfig[chNum] & Volt_Regulator_CHANNEL_CONFIG_MASK);
 235:Generated_Source\PSoC4/Volt_Regulator.c ****         #if(Volt_Regulator_TOTAL_CHANNELS_NUM > 1u)
 236:Generated_Source\PSoC4/Volt_Regulator.c ****             tmpRegVal |= Volt_Regulator_InputsPlacement[chNum];
 237:Generated_Source\PSoC4/Volt_Regulator.c ****         #endif /* End Volt_Regulator_TOTAL_CHANNELS_NUM > 1u */
 238:Generated_Source\PSoC4/Volt_Regulator.c ****         
 239:Generated_Source\PSoC4/Volt_Regulator.c ****         
 240:Generated_Source\PSoC4/Volt_Regulator.c ****         /* When the part is limited to 10-bit then the SUB_RESOLUTION bit
 241:Generated_Source\PSoC4/Volt_Regulator.c ****         *  will be ignored and the RESOLUTION bit selects between 10-bit
 242:Generated_Source\PSoC4/Volt_Regulator.c ****         *  (0) and 8-bit (1) resolution.
 243:Generated_Source\PSoC4/Volt_Regulator.c ****         */
 244:Generated_Source\PSoC4/Volt_Regulator.c ****         #if((Volt_Regulator_MAX_RESOLUTION != Volt_Regulator_RESOLUTION_12) && \
 245:Generated_Source\PSoC4/Volt_Regulator.c ****             (Volt_Regulator_ALT_WOUNDING == Volt_Regulator_WOUNDING_10BIT))
 246:Generated_Source\PSoC4/Volt_Regulator.c ****             tmpRegVal &= (uint32)(~Volt_Regulator_ALT_RESOLUTION_ON);
 247:Generated_Source\PSoC4/Volt_Regulator.c ****         #endif /* Volt_Regulator_MAX_RESOLUTION != Volt_Regulator_RESOLUTION_12 */
 248:Generated_Source\PSoC4/Volt_Regulator.c **** 
 249:Generated_Source\PSoC4/Volt_Regulator.c ****         #if(Volt_Regulator_INJ_CHANNEL_ENABLED)
 250:Generated_Source\PSoC4/Volt_Regulator.c ****         if(chNum < Volt_Regulator_SEQUENCED_CHANNELS_NUM)
 251:Generated_Source\PSoC4/Volt_Regulator.c ****         #endif /* Volt_Regulator_INJ_CHANNEL_ENABLED */
 252:Generated_Source\PSoC4/Volt_Regulator.c ****         {
 253:Generated_Source\PSoC4/Volt_Regulator.c ****             CY_SET_REG32((reg32 *)(Volt_Regulator_SAR_CHAN_CONFIG_IND + (uint32)(chNum << 2)), tmpR
 125              		.loc 1 253 0
 126 0078 9800     		lsls	r0, r3, #2
 127 007a 1F4A     		ldr	r2, .L6+80
 128 007c 8218     		adds	r2, r0, r2
 129 007e 0024     		movs	r4, #0
 130 0080 1460     		str	r4, [r2]
 254:Generated_Source\PSoC4/Volt_Regulator.c **** 
 255:Generated_Source\PSoC4/Volt_Regulator.c ****             if((Volt_Regulator_channelsConfig[chNum] & Volt_Regulator_IS_SATURATE_EN_MASK) != 0u)
 256:Generated_Source\PSoC4/Volt_Regulator.c ****             {
 257:Generated_Source\PSoC4/Volt_Regulator.c ****                 Volt_Regulator_SAR_SATURATE_INTR_MASK_REG |= (uint16)((uint16)1 << chNum);
 258:Generated_Source\PSoC4/Volt_Regulator.c ****             }
 259:Generated_Source\PSoC4/Volt_Regulator.c **** 
 260:Generated_Source\PSoC4/Volt_Regulator.c ****             if((Volt_Regulator_channelsConfig[chNum] & Volt_Regulator_IS_RANGE_CTRL_EN_MASK) != 0u)
 261:Generated_Source\PSoC4/Volt_Regulator.c ****             {
 262:Generated_Source\PSoC4/Volt_Regulator.c ****                 Volt_Regulator_SAR_RANGE_INTR_MASK_REG |= (uint16)((uint16)1 << chNum);
 131              		.loc 1 262 0
 132 0082 194D     		ldr	r5, .L6+64
 133 0084 2968     		ldr	r1, [r5]
 134 0086 0122     		movs	r2, #1
 135 0088 9A40     		lsls	r2, r2, r3
ARM GAS  C:\Users\sergio\AppData\Local\Temp\cckIYZNb.s 			page 8


 136 008a 1204     		lsls	r2, r2, #16
 137 008c 120C     		lsrs	r2, r2, #16
 138 008e 0A43     		orrs	r2, r1
 139 0090 2A60     		str	r2, [r5]
 140              	.LVL8:
 263:Generated_Source\PSoC4/Volt_Regulator.c ****             }
 264:Generated_Source\PSoC4/Volt_Regulator.c ****         }
 265:Generated_Source\PSoC4/Volt_Regulator.c ****         #if(Volt_Regulator_INJ_CHANNEL_ENABLED)
 266:Generated_Source\PSoC4/Volt_Regulator.c ****             else
 267:Generated_Source\PSoC4/Volt_Regulator.c ****             {
 268:Generated_Source\PSoC4/Volt_Regulator.c ****                 CY_SET_REG32(Volt_Regulator_SAR_INJ_CHAN_CONFIG_PTR, tmpRegVal | Volt_Regulator_INJ
 269:Generated_Source\PSoC4/Volt_Regulator.c **** 
 270:Generated_Source\PSoC4/Volt_Regulator.c ****                 if((Volt_Regulator_channelsConfig[chNum] & Volt_Regulator_IS_SATURATE_EN_MASK) != 0
 271:Generated_Source\PSoC4/Volt_Regulator.c ****                 {
 272:Generated_Source\PSoC4/Volt_Regulator.c ****                     Volt_Regulator_SAR_INTR_MASK_REG |= Volt_Regulator_INJ_SATURATE_MASK;
 273:Generated_Source\PSoC4/Volt_Regulator.c ****                 }
 274:Generated_Source\PSoC4/Volt_Regulator.c **** 
 275:Generated_Source\PSoC4/Volt_Regulator.c ****                 if((Volt_Regulator_channelsConfig[chNum] & Volt_Regulator_IS_RANGE_CTRL_EN_MASK) !=
 276:Generated_Source\PSoC4/Volt_Regulator.c ****                 {
 277:Generated_Source\PSoC4/Volt_Regulator.c ****                     Volt_Regulator_SAR_INTR_MASK_REG |= Volt_Regulator_INJ_RANGE_MASK;
 278:Generated_Source\PSoC4/Volt_Regulator.c ****                 }
 279:Generated_Source\PSoC4/Volt_Regulator.c ****             }
 280:Generated_Source\PSoC4/Volt_Regulator.c ****         #endif /* Volt_Regulator_INJ_CHANNEL_ENABLED */
 281:Generated_Source\PSoC4/Volt_Regulator.c **** 
 282:Generated_Source\PSoC4/Volt_Regulator.c ****         if((Volt_Regulator_channelsConfig[chNum] & Volt_Regulator_ALT_RESOLUTION_ON) != 0u)
 283:Generated_Source\PSoC4/Volt_Regulator.c ****         {
 284:Generated_Source\PSoC4/Volt_Regulator.c ****                counts = (int32)Volt_Regulator_DEFAULT_MAX_WRK_ALT;
 285:Generated_Source\PSoC4/Volt_Regulator.c ****         }
 286:Generated_Source\PSoC4/Volt_Regulator.c ****         else
 287:Generated_Source\PSoC4/Volt_Regulator.c ****         {
 288:Generated_Source\PSoC4/Volt_Regulator.c ****                counts = (int32)Volt_Regulator_SAR_WRK_MAX_12BIT;
 289:Generated_Source\PSoC4/Volt_Regulator.c ****         }
 290:Generated_Source\PSoC4/Volt_Regulator.c **** 
 291:Generated_Source\PSoC4/Volt_Regulator.c ****         if((Volt_Regulator_channelsConfig[chNum] & Volt_Regulator_DIFFERENTIAL_EN) == 0u)
 292:Generated_Source\PSoC4/Volt_Regulator.c ****         {
 293:Generated_Source\PSoC4/Volt_Regulator.c ****             #if((Volt_Regulator_DEFAULT_SE_RESULT_FORMAT_SEL == Volt_Regulator__FSIGNED) && \
 294:Generated_Source\PSoC4/Volt_Regulator.c ****                 (Volt_Regulator_DEFAULT_NEG_INPUT_SEL == Volt_Regulator__VREF))
 295:Generated_Source\PSoC4/Volt_Regulator.c ****                 /* Set offset to the minus half scale to convert results to unsigned format */
 296:Generated_Source\PSoC4/Volt_Regulator.c ****                 Volt_Regulator_offset[chNum] = (int16)(counts / -2);
 297:Generated_Source\PSoC4/Volt_Regulator.c ****             #else
 298:Generated_Source\PSoC4/Volt_Regulator.c ****                 Volt_Regulator_offset[chNum] = 0;
 141              		.loc 1 298 0
 142 0092 5900     		lsls	r1, r3, #1
 143 0094 194A     		ldr	r2, .L6+84
 144 0096 8C52     		strh	r4, [r1, r2]
 299:Generated_Source\PSoC4/Volt_Regulator.c ****             #endif /* end DEFAULT_SE_RESULT_FORMAT_SEL == Volt_Regulator__FSIGNED */
 300:Generated_Source\PSoC4/Volt_Regulator.c ****         }
 301:Generated_Source\PSoC4/Volt_Regulator.c ****         else    /* Differential channel */
 302:Generated_Source\PSoC4/Volt_Regulator.c ****         {
 303:Generated_Source\PSoC4/Volt_Regulator.c ****             #if(Volt_Regulator_DEFAULT_DIFF_RESULT_FORMAT_SEL == Volt_Regulator__FUNSIGNED)
 304:Generated_Source\PSoC4/Volt_Regulator.c ****                 /* Set offset to the half scale to convert results to signed format */
 305:Generated_Source\PSoC4/Volt_Regulator.c ****                 Volt_Regulator_offset[chNum] = (int16)(counts / 2);
 306:Generated_Source\PSoC4/Volt_Regulator.c ****             #else
 307:Generated_Source\PSoC4/Volt_Regulator.c ****                 Volt_Regulator_offset[chNum] = 0;
 308:Generated_Source\PSoC4/Volt_Regulator.c ****             #endif /* end Volt_Regulator_DEFAULT_DIFF_RESULT_FORMAT_SEL == Volt_Regulator__FUNSIGNE
 309:Generated_Source\PSoC4/Volt_Regulator.c ****         }
 310:Generated_Source\PSoC4/Volt_Regulator.c ****         /* Calculate gain in counts per 10 volts with rounding */
ARM GAS  C:\Users\sergio\AppData\Local\Temp\cckIYZNb.s 			page 9


 311:Generated_Source\PSoC4/Volt_Regulator.c ****         Volt_Regulator_countsPer10Volt[chNum] = (int16)(((counts * Volt_Regulator_10MV_COUNTS) +
 145              		.loc 1 311 0
 146 0098 1949     		ldr	r1, .L6+88
 147 009a 1A4A     		ldr	r2, .L6+92
 148 009c 8150     		str	r1, [r0, r2]
 232:Generated_Source\PSoC4/Volt_Regulator.c ****     {
 149              		.loc 1 232 0
 150 009e 0133     		adds	r3, r3, #1
 151              	.LVL9:
 152              	.L3:
 232:Generated_Source\PSoC4/Volt_Regulator.c ****     {
 153              		.loc 1 232 0 is_stmt 0 discriminator 1
 154 00a0 002B     		cmp	r3, #0
 155 00a2 E9D0     		beq	.L4
 312:Generated_Source\PSoC4/Volt_Regulator.c ****                             Volt_Regulator_DEFAULT_VREF_MV_VALUE) / (Volt_Regulator_DEFAULT_VREF_MV
 313:Generated_Source\PSoC4/Volt_Regulator.c ****     }
 314:Generated_Source\PSoC4/Volt_Regulator.c **** }
 156              		.loc 1 314 0 is_stmt 1
 157              		@ sp needed
 158 00a4 70BD     		pop	{r4, r5, r6, pc}
 159              	.L7:
 160 00a6 C046     		.align	2
 161              	.L6:
 162 00a8 00000000 		.word	Volt_Regulator_ISR
 163 00ac 20003A40 		.word	1077542944
 164 00b0 80033A40 		.word	1077543808
 165 00b4 70021053 		.word	1393558128
 166 00b8 70020053 		.word	1392509552
 167 00bc 00003A40 		.word	1077542912
 168 00c0 84000080 		.word	-2147483516
 169 00c4 04003A40 		.word	1077542916
 170 00c8 0700FF07 		.word	134152199
 171 00cc 18003A40 		.word	1077542936
 172 00d0 1C003A40 		.word	1077542940
 173 00d4 02000200 		.word	131074
 174 00d8 10003A40 		.word	1077542928
 175 00dc 14003A40 		.word	1077542932
 176 00e0 00033A40 		.word	1077543680
 177 00e4 28023A40 		.word	1077543464
 178 00e8 38023A40 		.word	1077543480
 179 00ec 18023A40 		.word	1077543448
 180 00f0 30003A40 		.word	1077542960
 181 00f4 FEFFFFDF 		.word	-536870914
 182 00f8 80003A40 		.word	1077543040
 183 00fc 00000000 		.word	Volt_Regulator_offset
 184 0100 3E180000 		.word	6206
 185 0104 00000000 		.word	Volt_Regulator_countsPer10Volt
 186              		.cfi_endproc
 187              	.LFE3:
 188              		.size	Volt_Regulator_Init, .-Volt_Regulator_Init
 189              		.section	.text.Volt_Regulator_Enable,"ax",%progbits
 190              		.align	2
 191              		.global	Volt_Regulator_Enable
 192              		.code	16
 193              		.thumb_func
 194              		.type	Volt_Regulator_Enable, %function
 195              	Volt_Regulator_Enable:
ARM GAS  C:\Users\sergio\AppData\Local\Temp\cckIYZNb.s 			page 10


 196              	.LFB4:
 315:Generated_Source\PSoC4/Volt_Regulator.c **** 
 316:Generated_Source\PSoC4/Volt_Regulator.c **** /*******************************************************************************
 317:Generated_Source\PSoC4/Volt_Regulator.c **** * Function Name: ADC_SAR_1_Enable
 318:Generated_Source\PSoC4/Volt_Regulator.c **** ********************************************************************************
 319:Generated_Source\PSoC4/Volt_Regulator.c **** *
 320:Generated_Source\PSoC4/Volt_Regulator.c **** * Summary:
 321:Generated_Source\PSoC4/Volt_Regulator.c **** *  Enables the clock and analog power for SAR ADC.
 322:Generated_Source\PSoC4/Volt_Regulator.c **** *
 323:Generated_Source\PSoC4/Volt_Regulator.c **** * Parameters:
 324:Generated_Source\PSoC4/Volt_Regulator.c **** *  None.
 325:Generated_Source\PSoC4/Volt_Regulator.c **** *
 326:Generated_Source\PSoC4/Volt_Regulator.c **** * Return:
 327:Generated_Source\PSoC4/Volt_Regulator.c **** *  None.
 328:Generated_Source\PSoC4/Volt_Regulator.c **** *
 329:Generated_Source\PSoC4/Volt_Regulator.c **** *******************************************************************************/
 330:Generated_Source\PSoC4/Volt_Regulator.c **** void Volt_Regulator_Enable(void)
 331:Generated_Source\PSoC4/Volt_Regulator.c **** {
 197              		.loc 1 331 0
 198              		.cfi_startproc
 199              		@ args = 0, pretend = 0, frame = 0
 200              		@ frame_needed = 0, uses_anonymous_args = 0
 201 0000 10B5     		push	{r4, lr}
 202              		.cfi_def_cfa_offset 8
 203              		.cfi_offset 4, -8
 204              		.cfi_offset 14, -4
 332:Generated_Source\PSoC4/Volt_Regulator.c ****     if (0u == (Volt_Regulator_SAR_CTRL_REG & Volt_Regulator_ENABLE))
 205              		.loc 1 332 0
 206 0002 094B     		ldr	r3, .L11
 207 0004 1B68     		ldr	r3, [r3]
 208 0006 002B     		cmp	r3, #0
 209 0008 0CDB     		blt	.L8
 210              	.L10:
 333:Generated_Source\PSoC4/Volt_Regulator.c ****     {
 334:Generated_Source\PSoC4/Volt_Regulator.c ****         #if(Volt_Regulator_CY_SAR_IP_VER != Volt_Regulator_CY_SAR_IP_VER0)
 335:Generated_Source\PSoC4/Volt_Regulator.c **** 
 336:Generated_Source\PSoC4/Volt_Regulator.c ****             while (0u != (Volt_Regulator_SAR_STATUS_REG & Volt_Regulator_STATUS_BUSY))
 211              		.loc 1 336 0 discriminator 1
 212 000a 084B     		ldr	r3, .L11+4
 213 000c 1B68     		ldr	r3, [r3]
 214 000e 002B     		cmp	r3, #0
 215 0010 FBDB     		blt	.L10
 337:Generated_Source\PSoC4/Volt_Regulator.c ****             {
 338:Generated_Source\PSoC4/Volt_Regulator.c ****                 /* wait for SAR to go idle to avoid deadlock */
 339:Generated_Source\PSoC4/Volt_Regulator.c ****             }
 340:Generated_Source\PSoC4/Volt_Regulator.c ****         #endif /* (Volt_Regulator_CY_SAR_IP_VER != Volt_Regulator_CY_SAR_IP_VER0) */
 341:Generated_Source\PSoC4/Volt_Regulator.c ****         
 342:Generated_Source\PSoC4/Volt_Regulator.c ****         Volt_Regulator_SAR_CTRL_REG |= Volt_Regulator_ENABLE;
 216              		.loc 1 342 0
 217 0012 054A     		ldr	r2, .L11
 218 0014 1368     		ldr	r3, [r2]
 219 0016 8021     		movs	r1, #128
 220 0018 0906     		lsls	r1, r1, #24
 221 001a 0B43     		orrs	r3, r1
 222 001c 1360     		str	r3, [r2]
 343:Generated_Source\PSoC4/Volt_Regulator.c ****         
 344:Generated_Source\PSoC4/Volt_Regulator.c ****         /* The block is ready to use 10 us after the enable signal is set high. */
ARM GAS  C:\Users\sergio\AppData\Local\Temp\cckIYZNb.s 			page 11


 345:Generated_Source\PSoC4/Volt_Regulator.c ****         CyDelayUs(Volt_Regulator_10US_DELAY);         
 223              		.loc 1 345 0
 224 001e 0A20     		movs	r0, #10
 225 0020 FFF7FEFF 		bl	CyDelayUs
 226              	.LVL10:
 227              	.L8:
 346:Generated_Source\PSoC4/Volt_Regulator.c ****     }
 347:Generated_Source\PSoC4/Volt_Regulator.c **** }
 228              		.loc 1 347 0
 229              		@ sp needed
 230 0024 10BD     		pop	{r4, pc}
 231              	.L12:
 232 0026 C046     		.align	2
 233              	.L11:
 234 0028 00003A40 		.word	1077542912
 235 002c 08023A40 		.word	1077543432
 236              		.cfi_endproc
 237              	.LFE4:
 238              		.size	Volt_Regulator_Enable, .-Volt_Regulator_Enable
 239              		.section	.text.Volt_Regulator_Start,"ax",%progbits
 240              		.align	2
 241              		.global	Volt_Regulator_Start
 242              		.code	16
 243              		.thumb_func
 244              		.type	Volt_Regulator_Start, %function
 245              	Volt_Regulator_Start:
 246              	.LFB2:
  64:Generated_Source\PSoC4/Volt_Regulator.c ****     /* If not Initialized then initialize all required hardware and software */
 247              		.loc 1 64 0
 248              		.cfi_startproc
 249              		@ args = 0, pretend = 0, frame = 0
 250              		@ frame_needed = 0, uses_anonymous_args = 0
 251 0000 10B5     		push	{r4, lr}
 252              		.cfi_def_cfa_offset 8
 253              		.cfi_offset 4, -8
 254              		.cfi_offset 14, -4
  66:Generated_Source\PSoC4/Volt_Regulator.c ****     {
 255              		.loc 1 66 0
 256 0002 064B     		ldr	r3, .L15
 257 0004 1B78     		ldrb	r3, [r3]
 258 0006 002B     		cmp	r3, #0
 259 0008 04D1     		bne	.L14
  68:Generated_Source\PSoC4/Volt_Regulator.c ****         Volt_Regulator_initVar = 1u;
 260              		.loc 1 68 0
 261 000a FFF7FEFF 		bl	Volt_Regulator_Init
 262              	.LVL11:
  69:Generated_Source\PSoC4/Volt_Regulator.c ****     }
 263              		.loc 1 69 0
 264 000e 0122     		movs	r2, #1
 265 0010 024B     		ldr	r3, .L15
 266 0012 1A70     		strb	r2, [r3]
 267              	.L14:
  71:Generated_Source\PSoC4/Volt_Regulator.c **** }
 268              		.loc 1 71 0
 269 0014 FFF7FEFF 		bl	Volt_Regulator_Enable
 270              	.LVL12:
  72:Generated_Source\PSoC4/Volt_Regulator.c **** 
ARM GAS  C:\Users\sergio\AppData\Local\Temp\cckIYZNb.s 			page 12


 271              		.loc 1 72 0
 272              		@ sp needed
 273 0018 10BD     		pop	{r4, pc}
 274              	.L16:
 275 001a C046     		.align	2
 276              	.L15:
 277 001c 00000000 		.word	.LANCHOR0
 278              		.cfi_endproc
 279              	.LFE2:
 280              		.size	Volt_Regulator_Start, .-Volt_Regulator_Start
 281              		.section	.text.Volt_Regulator_Stop,"ax",%progbits
 282              		.align	2
 283              		.global	Volt_Regulator_Stop
 284              		.code	16
 285              		.thumb_func
 286              		.type	Volt_Regulator_Stop, %function
 287              	Volt_Regulator_Stop:
 288              	.LFB5:
 348:Generated_Source\PSoC4/Volt_Regulator.c **** 
 349:Generated_Source\PSoC4/Volt_Regulator.c **** 
 350:Generated_Source\PSoC4/Volt_Regulator.c **** /*******************************************************************************
 351:Generated_Source\PSoC4/Volt_Regulator.c **** * Function Name: Volt_Regulator_Stop
 352:Generated_Source\PSoC4/Volt_Regulator.c **** ********************************************************************************
 353:Generated_Source\PSoC4/Volt_Regulator.c **** *
 354:Generated_Source\PSoC4/Volt_Regulator.c **** * Summary:
 355:Generated_Source\PSoC4/Volt_Regulator.c **** *  This function stops ADC conversions and puts the ADC into its lowest power
 356:Generated_Source\PSoC4/Volt_Regulator.c **** *  mode.
 357:Generated_Source\PSoC4/Volt_Regulator.c **** *
 358:Generated_Source\PSoC4/Volt_Regulator.c **** * Parameters:
 359:Generated_Source\PSoC4/Volt_Regulator.c **** *  None.
 360:Generated_Source\PSoC4/Volt_Regulator.c **** *
 361:Generated_Source\PSoC4/Volt_Regulator.c **** * Return:
 362:Generated_Source\PSoC4/Volt_Regulator.c **** *  None.
 363:Generated_Source\PSoC4/Volt_Regulator.c **** *
 364:Generated_Source\PSoC4/Volt_Regulator.c **** *******************************************************************************/
 365:Generated_Source\PSoC4/Volt_Regulator.c **** void Volt_Regulator_Stop(void)
 366:Generated_Source\PSoC4/Volt_Regulator.c **** {
 289              		.loc 1 366 0
 290              		.cfi_startproc
 291              		@ args = 0, pretend = 0, frame = 0
 292              		@ frame_needed = 0, uses_anonymous_args = 0
 293              		@ link register save eliminated.
 367:Generated_Source\PSoC4/Volt_Regulator.c ****     Volt_Regulator_SAR_CTRL_REG &= (uint32)~Volt_Regulator_ENABLE;
 294              		.loc 1 367 0
 295 0000 024A     		ldr	r2, .L18
 296 0002 1368     		ldr	r3, [r2]
 297 0004 5B00     		lsls	r3, r3, #1
 298 0006 5B08     		lsrs	r3, r3, #1
 299 0008 1360     		str	r3, [r2]
 368:Generated_Source\PSoC4/Volt_Regulator.c **** }
 300              		.loc 1 368 0
 301              		@ sp needed
 302 000a 7047     		bx	lr
 303              	.L19:
 304              		.align	2
 305              	.L18:
 306 000c 00003A40 		.word	1077542912
ARM GAS  C:\Users\sergio\AppData\Local\Temp\cckIYZNb.s 			page 13


 307              		.cfi_endproc
 308              	.LFE5:
 309              		.size	Volt_Regulator_Stop, .-Volt_Regulator_Stop
 310              		.section	.text.Volt_Regulator_StartConvert,"ax",%progbits
 311              		.align	2
 312              		.global	Volt_Regulator_StartConvert
 313              		.code	16
 314              		.thumb_func
 315              		.type	Volt_Regulator_StartConvert, %function
 316              	Volt_Regulator_StartConvert:
 317              	.LFB6:
 369:Generated_Source\PSoC4/Volt_Regulator.c **** 
 370:Generated_Source\PSoC4/Volt_Regulator.c **** 
 371:Generated_Source\PSoC4/Volt_Regulator.c **** /*******************************************************************************
 372:Generated_Source\PSoC4/Volt_Regulator.c **** * Function Name: Volt_Regulator_StartConvert
 373:Generated_Source\PSoC4/Volt_Regulator.c **** ********************************************************************************
 374:Generated_Source\PSoC4/Volt_Regulator.c **** *
 375:Generated_Source\PSoC4/Volt_Regulator.c **** * Summary:
 376:Generated_Source\PSoC4/Volt_Regulator.c **** *  Description:
 377:Generated_Source\PSoC4/Volt_Regulator.c **** *  For free running mode, this API starts the conversion process and it
 378:Generated_Source\PSoC4/Volt_Regulator.c **** *  runs continuously.
 379:Generated_Source\PSoC4/Volt_Regulator.c **** *
 380:Generated_Source\PSoC4/Volt_Regulator.c **** *  In a triggered mode, this routine triggers every conversion by
 381:Generated_Source\PSoC4/Volt_Regulator.c **** *  writing into the FW_TRIGGER bit in SAR_START_CTRL reg. In triggered mode,
 382:Generated_Source\PSoC4/Volt_Regulator.c **** *  every conversion has to start by this API.
 383:Generated_Source\PSoC4/Volt_Regulator.c **** *
 384:Generated_Source\PSoC4/Volt_Regulator.c **** * Parameters:
 385:Generated_Source\PSoC4/Volt_Regulator.c **** *  None.
 386:Generated_Source\PSoC4/Volt_Regulator.c **** *
 387:Generated_Source\PSoC4/Volt_Regulator.c **** * Return:
 388:Generated_Source\PSoC4/Volt_Regulator.c **** *  None.
 389:Generated_Source\PSoC4/Volt_Regulator.c **** *
 390:Generated_Source\PSoC4/Volt_Regulator.c **** *******************************************************************************/
 391:Generated_Source\PSoC4/Volt_Regulator.c **** void Volt_Regulator_StartConvert(void)
 392:Generated_Source\PSoC4/Volt_Regulator.c **** {
 318              		.loc 1 392 0
 319              		.cfi_startproc
 320              		@ args = 0, pretend = 0, frame = 0
 321              		@ frame_needed = 0, uses_anonymous_args = 0
 322              		@ link register save eliminated.
 393:Generated_Source\PSoC4/Volt_Regulator.c ****     #if(Volt_Regulator_DEFAULT_SAMPLE_MODE_SEL == Volt_Regulator__FREERUNNING)
 394:Generated_Source\PSoC4/Volt_Regulator.c ****         Volt_Regulator_SAR_SAMPLE_CTRL_REG |= Volt_Regulator_CONTINUOUS_EN;
 323              		.loc 1 394 0
 324 0000 034A     		ldr	r2, .L21
 325 0002 1368     		ldr	r3, [r2]
 326 0004 8021     		movs	r1, #128
 327 0006 4902     		lsls	r1, r1, #9
 328 0008 0B43     		orrs	r3, r1
 329 000a 1360     		str	r3, [r2]
 395:Generated_Source\PSoC4/Volt_Regulator.c ****     #else /* Firmware trigger */
 396:Generated_Source\PSoC4/Volt_Regulator.c ****         Volt_Regulator_SAR_START_CTRL_REG = Volt_Regulator_FW_TRIGGER;
 397:Generated_Source\PSoC4/Volt_Regulator.c ****     #endif /* End Volt_Regulator_DEFAULT_SAMPLE_MODE == Volt_Regulator__FREERUNNING */
 398:Generated_Source\PSoC4/Volt_Regulator.c **** 
 399:Generated_Source\PSoC4/Volt_Regulator.c **** }
 330              		.loc 1 399 0
 331              		@ sp needed
 332 000c 7047     		bx	lr
ARM GAS  C:\Users\sergio\AppData\Local\Temp\cckIYZNb.s 			page 14


 333              	.L22:
 334 000e C046     		.align	2
 335              	.L21:
 336 0010 04003A40 		.word	1077542916
 337              		.cfi_endproc
 338              	.LFE6:
 339              		.size	Volt_Regulator_StartConvert, .-Volt_Regulator_StartConvert
 340              		.section	.text.Volt_Regulator_StopConvert,"ax",%progbits
 341              		.align	2
 342              		.global	Volt_Regulator_StopConvert
 343              		.code	16
 344              		.thumb_func
 345              		.type	Volt_Regulator_StopConvert, %function
 346              	Volt_Regulator_StopConvert:
 347              	.LFB7:
 400:Generated_Source\PSoC4/Volt_Regulator.c **** 
 401:Generated_Source\PSoC4/Volt_Regulator.c **** 
 402:Generated_Source\PSoC4/Volt_Regulator.c **** /*******************************************************************************
 403:Generated_Source\PSoC4/Volt_Regulator.c **** * Function Name: Volt_Regulator_StopConvert
 404:Generated_Source\PSoC4/Volt_Regulator.c **** ********************************************************************************
 405:Generated_Source\PSoC4/Volt_Regulator.c **** *
 406:Generated_Source\PSoC4/Volt_Regulator.c **** * Summary:
 407:Generated_Source\PSoC4/Volt_Regulator.c **** *  Forces the ADC to stop all conversions.
 408:Generated_Source\PSoC4/Volt_Regulator.c **** *
 409:Generated_Source\PSoC4/Volt_Regulator.c **** * Parameters:
 410:Generated_Source\PSoC4/Volt_Regulator.c **** *  None.
 411:Generated_Source\PSoC4/Volt_Regulator.c **** *
 412:Generated_Source\PSoC4/Volt_Regulator.c **** * Return:
 413:Generated_Source\PSoC4/Volt_Regulator.c **** *  None.
 414:Generated_Source\PSoC4/Volt_Regulator.c **** *
 415:Generated_Source\PSoC4/Volt_Regulator.c **** *******************************************************************************/
 416:Generated_Source\PSoC4/Volt_Regulator.c **** void Volt_Regulator_StopConvert(void)
 417:Generated_Source\PSoC4/Volt_Regulator.c **** {
 348              		.loc 1 417 0
 349              		.cfi_startproc
 350              		@ args = 0, pretend = 0, frame = 0
 351              		@ frame_needed = 0, uses_anonymous_args = 0
 352              		@ link register save eliminated.
 418:Generated_Source\PSoC4/Volt_Regulator.c ****     #if(Volt_Regulator_DEFAULT_SAMPLE_MODE_SEL == Volt_Regulator__FREERUNNING)
 419:Generated_Source\PSoC4/Volt_Regulator.c ****         Volt_Regulator_SAR_SAMPLE_CTRL_REG &= (uint32)(~Volt_Regulator_CONTINUOUS_EN);
 353              		.loc 1 419 0
 354 0000 024A     		ldr	r2, .L24
 355 0002 1168     		ldr	r1, [r2]
 356 0004 024B     		ldr	r3, .L24+4
 357 0006 0B40     		ands	r3, r1
 358 0008 1360     		str	r3, [r2]
 420:Generated_Source\PSoC4/Volt_Regulator.c ****     #endif /* Volt_Regulator_DEFAULT_SAMPLE_MODE == Volt_Regulator__FREERUNNING */
 421:Generated_Source\PSoC4/Volt_Regulator.c **** }
 359              		.loc 1 421 0
 360              		@ sp needed
 361 000a 7047     		bx	lr
 362              	.L25:
 363              		.align	2
 364              	.L24:
 365 000c 04003A40 		.word	1077542916
 366 0010 FFFFFEFF 		.word	-65537
 367              		.cfi_endproc
ARM GAS  C:\Users\sergio\AppData\Local\Temp\cckIYZNb.s 			page 15


 368              	.LFE7:
 369              		.size	Volt_Regulator_StopConvert, .-Volt_Regulator_StopConvert
 370              		.section	.text.Volt_Regulator_IsEndConversion,"ax",%progbits
 371              		.align	2
 372              		.global	Volt_Regulator_IsEndConversion
 373              		.code	16
 374              		.thumb_func
 375              		.type	Volt_Regulator_IsEndConversion, %function
 376              	Volt_Regulator_IsEndConversion:
 377              	.LFB8:
 422:Generated_Source\PSoC4/Volt_Regulator.c **** 
 423:Generated_Source\PSoC4/Volt_Regulator.c **** 
 424:Generated_Source\PSoC4/Volt_Regulator.c **** /*******************************************************************************
 425:Generated_Source\PSoC4/Volt_Regulator.c **** * Function Name: Volt_Regulator_IsEndConversion
 426:Generated_Source\PSoC4/Volt_Regulator.c **** ********************************************************************************
 427:Generated_Source\PSoC4/Volt_Regulator.c **** *
 428:Generated_Source\PSoC4/Volt_Regulator.c **** * Summary:
 429:Generated_Source\PSoC4/Volt_Regulator.c **** *  Description: Checks for ADC end of conversion for the case one
 430:Generated_Source\PSoC4/Volt_Regulator.c **** *  channel and end of scan for the case of multiple channels. It acts
 431:Generated_Source\PSoC4/Volt_Regulator.c **** *  as a software version of the EOC. This function provides the
 432:Generated_Source\PSoC4/Volt_Regulator.c **** *  programmer with two options. In one mode this function
 433:Generated_Source\PSoC4/Volt_Regulator.c **** *  immediately returns with the conversion status. In the other mode,
 434:Generated_Source\PSoC4/Volt_Regulator.c **** *  the function does not return (blocking) until the conversion has
 435:Generated_Source\PSoC4/Volt_Regulator.c **** *  completed.
 436:Generated_Source\PSoC4/Volt_Regulator.c **** *
 437:Generated_Source\PSoC4/Volt_Regulator.c **** * Parameters:
 438:Generated_Source\PSoC4/Volt_Regulator.c **** *  ADC_RETURN_STATUS        -> Immediately returns conversion result status
 439:Generated_Source\PSoC4/Volt_Regulator.c **** *  ADC_WAIT_FOR_RESULT      -> Does not return until ADC complete
 440:Generated_Source\PSoC4/Volt_Regulator.c **** *  ADC_RETURN_STATUS_INJ    -> Immediately returns conversion result status
 441:Generated_Source\PSoC4/Volt_Regulator.c **** *                              for injection channel
 442:Generated_Source\PSoC4/Volt_Regulator.c **** *  ADC_WAIT_FOR_RESULT_INJ  -> Does not return until ADC completes injection
 443:Generated_Source\PSoC4/Volt_Regulator.c **** *                              channel conversion
 444:Generated_Source\PSoC4/Volt_Regulator.c **** *
 445:Generated_Source\PSoC4/Volt_Regulator.c **** * Return:
 446:Generated_Source\PSoC4/Volt_Regulator.c **** *  If a non-zero value is returned, the last conversion or scan has completed.
 447:Generated_Source\PSoC4/Volt_Regulator.c **** *  If the returned value is zero, the ADC is still in the process of a scan.
 448:Generated_Source\PSoC4/Volt_Regulator.c **** *
 449:Generated_Source\PSoC4/Volt_Regulator.c **** *******************************************************************************/
 450:Generated_Source\PSoC4/Volt_Regulator.c **** uint32 Volt_Regulator_IsEndConversion(uint32 retMode)
 451:Generated_Source\PSoC4/Volt_Regulator.c **** {
 378              		.loc 1 451 0
 379              		.cfi_startproc
 380              		@ args = 0, pretend = 0, frame = 0
 381              		@ frame_needed = 0, uses_anonymous_args = 0
 382              		@ link register save eliminated.
 383              	.LVL13:
 384 0000 0200     		movs	r2, r0
 385              	.LVL14:
 452:Generated_Source\PSoC4/Volt_Regulator.c ****     uint32 status = 0u;
 453:Generated_Source\PSoC4/Volt_Regulator.c **** 
 454:Generated_Source\PSoC4/Volt_Regulator.c ****     if((retMode & (Volt_Regulator_RETURN_STATUS | Volt_Regulator_WAIT_FOR_RESULT)) != 0u)
 386              		.loc 1 454 0
 387 0002 8307     		lsls	r3, r0, #30
 388 0004 0CD0     		beq	.L30
 389              	.LVL15:
 390              	.L29:
 455:Generated_Source\PSoC4/Volt_Regulator.c ****     {
ARM GAS  C:\Users\sergio\AppData\Local\Temp\cckIYZNb.s 			page 16


 456:Generated_Source\PSoC4/Volt_Regulator.c ****         do
 457:Generated_Source\PSoC4/Volt_Regulator.c ****         {
 458:Generated_Source\PSoC4/Volt_Regulator.c ****             status = Volt_Regulator_SAR_INTR_REG & Volt_Regulator_EOS_MASK;
 391              		.loc 1 458 0 discriminator 2
 392 0006 074B     		ldr	r3, .L31
 393 0008 1B68     		ldr	r3, [r3]
 394 000a 0120     		movs	r0, #1
 395 000c 1840     		ands	r0, r3
 396              	.LVL16:
 459:Generated_Source\PSoC4/Volt_Regulator.c ****         }while((status == 0u) && ((retMode & Volt_Regulator_WAIT_FOR_RESULT) != 0u));
 397              		.loc 1 459 0 discriminator 2
 398 000e 01D1     		bne	.L28
 399              		.loc 1 459 0 is_stmt 0 discriminator 1
 400 0010 9307     		lsls	r3, r2, #30
 401 0012 F8D4     		bmi	.L29
 402              	.L28:
 460:Generated_Source\PSoC4/Volt_Regulator.c **** 
 461:Generated_Source\PSoC4/Volt_Regulator.c ****         if(status != 0u)
 403              		.loc 1 461 0 is_stmt 1
 404 0014 0028     		cmp	r0, #0
 405 0016 04D0     		beq	.L27
 462:Generated_Source\PSoC4/Volt_Regulator.c ****         {
 463:Generated_Source\PSoC4/Volt_Regulator.c ****             /* Clear EOS bit */
 464:Generated_Source\PSoC4/Volt_Regulator.c ****             Volt_Regulator_SAR_INTR_REG = Volt_Regulator_EOS_MASK;
 406              		.loc 1 464 0
 407 0018 0122     		movs	r2, #1
 408              	.LVL17:
 409 001a 024B     		ldr	r3, .L31
 410 001c 1A60     		str	r2, [r3]
 411 001e 00E0     		b	.L27
 412              	.LVL18:
 413              	.L30:
 452:Generated_Source\PSoC4/Volt_Regulator.c **** 
 414              		.loc 1 452 0
 415 0020 0020     		movs	r0, #0
 416              	.LVL19:
 417              	.L27:
 465:Generated_Source\PSoC4/Volt_Regulator.c ****         }
 466:Generated_Source\PSoC4/Volt_Regulator.c ****     }
 467:Generated_Source\PSoC4/Volt_Regulator.c **** 
 468:Generated_Source\PSoC4/Volt_Regulator.c ****     #if(Volt_Regulator_INJ_CHANNEL_ENABLED)
 469:Generated_Source\PSoC4/Volt_Regulator.c ****         if((retMode & (Volt_Regulator_RETURN_STATUS_INJ | Volt_Regulator_WAIT_FOR_RESULT_INJ)) != 0
 470:Generated_Source\PSoC4/Volt_Regulator.c ****         {
 471:Generated_Source\PSoC4/Volt_Regulator.c ****             do
 472:Generated_Source\PSoC4/Volt_Regulator.c ****             {
 473:Generated_Source\PSoC4/Volt_Regulator.c ****                 status |= Volt_Regulator_SAR_INTR_REG & Volt_Regulator_INJ_EOC_MASK;
 474:Generated_Source\PSoC4/Volt_Regulator.c ****             }while(((status & Volt_Regulator_INJ_EOC_MASK) == 0u) &&
 475:Generated_Source\PSoC4/Volt_Regulator.c ****                    ((retMode & Volt_Regulator_WAIT_FOR_RESULT_INJ) != 0u));
 476:Generated_Source\PSoC4/Volt_Regulator.c **** 
 477:Generated_Source\PSoC4/Volt_Regulator.c ****             if((status & Volt_Regulator_INJ_EOC_MASK) != 0u)
 478:Generated_Source\PSoC4/Volt_Regulator.c ****             {
 479:Generated_Source\PSoC4/Volt_Regulator.c ****                 /* Clear Injection EOS bit */
 480:Generated_Source\PSoC4/Volt_Regulator.c ****                 Volt_Regulator_SAR_INTR_REG = Volt_Regulator_INJ_EOC_MASK;
 481:Generated_Source\PSoC4/Volt_Regulator.c ****             }
 482:Generated_Source\PSoC4/Volt_Regulator.c ****         }
 483:Generated_Source\PSoC4/Volt_Regulator.c ****     #endif /* Volt_Regulator_INJ_CHANNEL_ENABLED */
 484:Generated_Source\PSoC4/Volt_Regulator.c **** 
ARM GAS  C:\Users\sergio\AppData\Local\Temp\cckIYZNb.s 			page 17


 485:Generated_Source\PSoC4/Volt_Regulator.c ****     return (status);
 486:Generated_Source\PSoC4/Volt_Regulator.c **** }
 418              		.loc 1 486 0
 419              		@ sp needed
 420 0022 7047     		bx	lr
 421              	.L32:
 422              		.align	2
 423              	.L31:
 424 0024 10023A40 		.word	1077543440
 425              		.cfi_endproc
 426              	.LFE8:
 427              		.size	Volt_Regulator_IsEndConversion, .-Volt_Regulator_IsEndConversion
 428              		.section	.text.Volt_Regulator_GetResult16,"ax",%progbits
 429              		.align	2
 430              		.global	Volt_Regulator_GetResult16
 431              		.code	16
 432              		.thumb_func
 433              		.type	Volt_Regulator_GetResult16, %function
 434              	Volt_Regulator_GetResult16:
 435              	.LFB9:
 487:Generated_Source\PSoC4/Volt_Regulator.c **** 
 488:Generated_Source\PSoC4/Volt_Regulator.c **** 
 489:Generated_Source\PSoC4/Volt_Regulator.c **** /*******************************************************************************
 490:Generated_Source\PSoC4/Volt_Regulator.c **** * Function Name: Volt_Regulator_GetResult16
 491:Generated_Source\PSoC4/Volt_Regulator.c **** ********************************************************************************
 492:Generated_Source\PSoC4/Volt_Regulator.c **** *
 493:Generated_Source\PSoC4/Volt_Regulator.c **** * Summary:
 494:Generated_Source\PSoC4/Volt_Regulator.c **** *  Gets the data available in the SAR DATA register.
 495:Generated_Source\PSoC4/Volt_Regulator.c **** *
 496:Generated_Source\PSoC4/Volt_Regulator.c **** * Parameters:
 497:Generated_Source\PSoC4/Volt_Regulator.c **** *  chan: The ADC channel in which to return the result. The first channel
 498:Generated_Source\PSoC4/Volt_Regulator.c **** *  is 0 and the injection channel if enabled is the number of valid channels.
 499:Generated_Source\PSoC4/Volt_Regulator.c **** *
 500:Generated_Source\PSoC4/Volt_Regulator.c **** * Return:
 501:Generated_Source\PSoC4/Volt_Regulator.c **** *  Returns converted data as a signed 16-bit integer
 502:Generated_Source\PSoC4/Volt_Regulator.c **** *
 503:Generated_Source\PSoC4/Volt_Regulator.c **** *******************************************************************************/
 504:Generated_Source\PSoC4/Volt_Regulator.c **** int16 Volt_Regulator_GetResult16(uint32 chan)
 505:Generated_Source\PSoC4/Volt_Regulator.c **** {
 436              		.loc 1 505 0
 437              		.cfi_startproc
 438              		@ args = 0, pretend = 0, frame = 0
 439              		@ frame_needed = 0, uses_anonymous_args = 0
 440              	.LVL20:
 441 0000 10B5     		push	{r4, lr}
 442              		.cfi_def_cfa_offset 8
 443              		.cfi_offset 4, -8
 444              		.cfi_offset 14, -4
 445 0002 041E     		subs	r4, r0, #0
 506:Generated_Source\PSoC4/Volt_Regulator.c ****     uint32 result;
 507:Generated_Source\PSoC4/Volt_Regulator.c **** 
 508:Generated_Source\PSoC4/Volt_Regulator.c ****     /* Halt CPU in debug mode if channel is out of valid range */
 509:Generated_Source\PSoC4/Volt_Regulator.c ****     CYASSERT(chan < Volt_Regulator_TOTAL_CHANNELS_NUM);
 446              		.loc 1 509 0
 447 0004 02D0     		beq	.L34
 448              		.loc 1 509 0 is_stmt 0 discriminator 1
 449 0006 0020     		movs	r0, #0
ARM GAS  C:\Users\sergio\AppData\Local\Temp\cckIYZNb.s 			page 18


 450              	.LVL21:
 451 0008 FFF7FEFF 		bl	CyHalt
 452              	.LVL22:
 453              	.L34:
 510:Generated_Source\PSoC4/Volt_Regulator.c **** 
 511:Generated_Source\PSoC4/Volt_Regulator.c ****     if(chan < Volt_Regulator_SEQUENCED_CHANNELS_NUM)
 454              		.loc 1 511 0 is_stmt 1
 455 000c 002C     		cmp	r4, #0
 456 000e 07D1     		bne	.L36
 512:Generated_Source\PSoC4/Volt_Regulator.c ****     {
 513:Generated_Source\PSoC4/Volt_Regulator.c ****         result = CY_GET_REG32((reg32 *)(Volt_Regulator_SAR_CHAN_RESULT_IND + (uint32)(chan << 2u)))
 457              		.loc 1 513 0
 458 0010 A400     		lsls	r4, r4, #2
 459              	.LVL23:
 460 0012 054B     		ldr	r3, .L37
 461 0014 9C46     		mov	ip, r3
 462 0016 6444     		add	r4, r4, ip
 463 0018 2068     		ldr	r0, [r4]
 464 001a 0004     		lsls	r0, r0, #16
 465 001c 000C     		lsrs	r0, r0, #16
 466              	.LVL24:
 467 001e 00E0     		b	.L35
 468              	.LVL25:
 469              	.L36:
 514:Generated_Source\PSoC4/Volt_Regulator.c ****                 Volt_Regulator_RESULT_MASK;
 515:Generated_Source\PSoC4/Volt_Regulator.c ****     }
 516:Generated_Source\PSoC4/Volt_Regulator.c ****     else
 517:Generated_Source\PSoC4/Volt_Regulator.c ****     {
 518:Generated_Source\PSoC4/Volt_Regulator.c ****         #if(Volt_Regulator_INJ_CHANNEL_ENABLED)
 519:Generated_Source\PSoC4/Volt_Regulator.c ****             result = Volt_Regulator_SAR_INJ_RESULT_REG & Volt_Regulator_RESULT_MASK;
 520:Generated_Source\PSoC4/Volt_Regulator.c ****         #else
 521:Generated_Source\PSoC4/Volt_Regulator.c ****             result = 0u;
 470              		.loc 1 521 0
 471 0020 0020     		movs	r0, #0
 472              	.LVL26:
 473              	.L35:
 522:Generated_Source\PSoC4/Volt_Regulator.c ****         #endif /* Volt_Regulator_INJ_CHANNEL_ENABLED */
 523:Generated_Source\PSoC4/Volt_Regulator.c ****     }
 524:Generated_Source\PSoC4/Volt_Regulator.c **** 
 525:Generated_Source\PSoC4/Volt_Regulator.c ****     return ( (int16)result );
 474              		.loc 1 525 0
 475 0022 00B2     		sxth	r0, r0
 476              	.LVL27:
 526:Generated_Source\PSoC4/Volt_Regulator.c **** }
 477              		.loc 1 526 0
 478              		@ sp needed
 479 0024 10BD     		pop	{r4, pc}
 480              	.L38:
 481 0026 C046     		.align	2
 482              	.L37:
 483 0028 80013A40 		.word	1077543296
 484              		.cfi_endproc
 485              	.LFE9:
 486              		.size	Volt_Regulator_GetResult16, .-Volt_Regulator_GetResult16
 487              		.section	.text.Volt_Regulator_SetChanMask,"ax",%progbits
 488              		.align	2
 489              		.global	Volt_Regulator_SetChanMask
ARM GAS  C:\Users\sergio\AppData\Local\Temp\cckIYZNb.s 			page 19


 490              		.code	16
 491              		.thumb_func
 492              		.type	Volt_Regulator_SetChanMask, %function
 493              	Volt_Regulator_SetChanMask:
 494              	.LFB10:
 527:Generated_Source\PSoC4/Volt_Regulator.c **** 
 528:Generated_Source\PSoC4/Volt_Regulator.c **** 
 529:Generated_Source\PSoC4/Volt_Regulator.c **** /*******************************************************************************
 530:Generated_Source\PSoC4/Volt_Regulator.c **** * Function Name: Volt_Regulator_SetChanMask
 531:Generated_Source\PSoC4/Volt_Regulator.c **** ********************************************************************************
 532:Generated_Source\PSoC4/Volt_Regulator.c **** *
 533:Generated_Source\PSoC4/Volt_Regulator.c **** * Summary:
 534:Generated_Source\PSoC4/Volt_Regulator.c **** *  Sets the channel enable mask.
 535:Generated_Source\PSoC4/Volt_Regulator.c **** *
 536:Generated_Source\PSoC4/Volt_Regulator.c **** * Parameters:
 537:Generated_Source\PSoC4/Volt_Regulator.c **** *  mask: Sets which channels that will be
 538:Generated_Source\PSoC4/Volt_Regulator.c **** *  scanned. Setting bits for channels that do not exist will have no
 539:Generated_Source\PSoC4/Volt_Regulator.c **** *  effect. For example, if only 6 channels were enabled, setting a
 540:Generated_Source\PSoC4/Volt_Regulator.c **** *  mask of 0x0103 would only enable the last two channels (0 and 1).
 541:Generated_Source\PSoC4/Volt_Regulator.c **** *  This API will not enable the injection channel.
 542:Generated_Source\PSoC4/Volt_Regulator.c **** *  Examples: If the component is setup to sequence through 8
 543:Generated_Source\PSoC4/Volt_Regulator.c **** *  channels, a mask of 0x000F would enable channels 0, 1, 2, and 3.
 544:Generated_Source\PSoC4/Volt_Regulator.c **** *
 545:Generated_Source\PSoC4/Volt_Regulator.c **** * Return:
 546:Generated_Source\PSoC4/Volt_Regulator.c **** *  None.
 547:Generated_Source\PSoC4/Volt_Regulator.c **** *
 548:Generated_Source\PSoC4/Volt_Regulator.c **** *******************************************************************************/
 549:Generated_Source\PSoC4/Volt_Regulator.c **** void Volt_Regulator_SetChanMask(uint32 mask)
 550:Generated_Source\PSoC4/Volt_Regulator.c **** {
 495              		.loc 1 550 0
 496              		.cfi_startproc
 497              		@ args = 0, pretend = 0, frame = 0
 498              		@ frame_needed = 0, uses_anonymous_args = 0
 499              		@ link register save eliminated.
 500              	.LVL28:
 551:Generated_Source\PSoC4/Volt_Regulator.c ****     Volt_Regulator_SAR_CHAN_EN_REG = mask & Volt_Regulator_MAX_CHANNELS_EN_MASK;
 501              		.loc 1 551 0
 502 0000 0123     		movs	r3, #1
 503 0002 1840     		ands	r0, r3
 504              	.LVL29:
 505 0004 014B     		ldr	r3, .L40
 506 0006 1860     		str	r0, [r3]
 552:Generated_Source\PSoC4/Volt_Regulator.c **** }
 507              		.loc 1 552 0
 508              		@ sp needed
 509 0008 7047     		bx	lr
 510              	.L41:
 511 000a C046     		.align	2
 512              	.L40:
 513 000c 20003A40 		.word	1077542944
 514              		.cfi_endproc
 515              	.LFE10:
 516              		.size	Volt_Regulator_SetChanMask, .-Volt_Regulator_SetChanMask
 517              		.section	.text.Volt_Regulator_SetLowLimit,"ax",%progbits
 518              		.align	2
 519              		.global	Volt_Regulator_SetLowLimit
 520              		.code	16
ARM GAS  C:\Users\sergio\AppData\Local\Temp\cckIYZNb.s 			page 20


 521              		.thumb_func
 522              		.type	Volt_Regulator_SetLowLimit, %function
 523              	Volt_Regulator_SetLowLimit:
 524              	.LFB11:
 553:Generated_Source\PSoC4/Volt_Regulator.c **** 
 554:Generated_Source\PSoC4/Volt_Regulator.c **** #if(Volt_Regulator_INJ_CHANNEL_ENABLED)
 555:Generated_Source\PSoC4/Volt_Regulator.c **** 
 556:Generated_Source\PSoC4/Volt_Regulator.c **** 
 557:Generated_Source\PSoC4/Volt_Regulator.c ****     /*******************************************************************************
 558:Generated_Source\PSoC4/Volt_Regulator.c ****     * Function Name: Volt_Regulator_EnableInjection
 559:Generated_Source\PSoC4/Volt_Regulator.c ****     ********************************************************************************
 560:Generated_Source\PSoC4/Volt_Regulator.c ****     *
 561:Generated_Source\PSoC4/Volt_Regulator.c ****     * Summary:
 562:Generated_Source\PSoC4/Volt_Regulator.c ****     *  Enables the injection channel for the next scan only.
 563:Generated_Source\PSoC4/Volt_Regulator.c ****     *
 564:Generated_Source\PSoC4/Volt_Regulator.c ****     * Parameters:
 565:Generated_Source\PSoC4/Volt_Regulator.c ****     *  None.
 566:Generated_Source\PSoC4/Volt_Regulator.c ****     *
 567:Generated_Source\PSoC4/Volt_Regulator.c ****     * Return:
 568:Generated_Source\PSoC4/Volt_Regulator.c ****     *  None.
 569:Generated_Source\PSoC4/Volt_Regulator.c ****     *
 570:Generated_Source\PSoC4/Volt_Regulator.c ****     *******************************************************************************/
 571:Generated_Source\PSoC4/Volt_Regulator.c ****     void Volt_Regulator_EnableInjection(void)
 572:Generated_Source\PSoC4/Volt_Regulator.c ****     {
 573:Generated_Source\PSoC4/Volt_Regulator.c ****         Volt_Regulator_SAR_INJ_CHAN_CONFIG_REG |= Volt_Regulator_INJ_CHAN_EN;
 574:Generated_Source\PSoC4/Volt_Regulator.c ****     }
 575:Generated_Source\PSoC4/Volt_Regulator.c **** 
 576:Generated_Source\PSoC4/Volt_Regulator.c **** #endif /* Volt_Regulator_INJ_CHANNEL_ENABLED */
 577:Generated_Source\PSoC4/Volt_Regulator.c **** 
 578:Generated_Source\PSoC4/Volt_Regulator.c **** 
 579:Generated_Source\PSoC4/Volt_Regulator.c **** /*******************************************************************************
 580:Generated_Source\PSoC4/Volt_Regulator.c **** * Function Name: Volt_Regulator_SetLowLimit
 581:Generated_Source\PSoC4/Volt_Regulator.c **** ********************************************************************************
 582:Generated_Source\PSoC4/Volt_Regulator.c **** *
 583:Generated_Source\PSoC4/Volt_Regulator.c **** * Summary:
 584:Generated_Source\PSoC4/Volt_Regulator.c **** *  Sets the low limit parameter for a limit condition.
 585:Generated_Source\PSoC4/Volt_Regulator.c **** *
 586:Generated_Source\PSoC4/Volt_Regulator.c **** * Parameters:
 587:Generated_Source\PSoC4/Volt_Regulator.c **** *  lowLimit: The low limit for a limit condition.
 588:Generated_Source\PSoC4/Volt_Regulator.c **** *
 589:Generated_Source\PSoC4/Volt_Regulator.c **** * Return:
 590:Generated_Source\PSoC4/Volt_Regulator.c **** *  None.
 591:Generated_Source\PSoC4/Volt_Regulator.c **** *
 592:Generated_Source\PSoC4/Volt_Regulator.c **** *******************************************************************************/
 593:Generated_Source\PSoC4/Volt_Regulator.c **** void Volt_Regulator_SetLowLimit(uint32 lowLimit)
 594:Generated_Source\PSoC4/Volt_Regulator.c **** {
 525              		.loc 1 594 0
 526              		.cfi_startproc
 527              		@ args = 0, pretend = 0, frame = 0
 528              		@ frame_needed = 0, uses_anonymous_args = 0
 529              		@ link register save eliminated.
 530              	.LVL30:
 595:Generated_Source\PSoC4/Volt_Regulator.c ****     Volt_Regulator_SAR_RANGE_THRES_REG &= (uint32)(~Volt_Regulator_RANGE_LOW_MASK);
 531              		.loc 1 595 0
 532 0000 054A     		ldr	r2, .L43
 533 0002 1368     		ldr	r3, [r2]
 534 0004 1B0C     		lsrs	r3, r3, #16
ARM GAS  C:\Users\sergio\AppData\Local\Temp\cckIYZNb.s 			page 21


 535 0006 1B04     		lsls	r3, r3, #16
 536 0008 1360     		str	r3, [r2]
 596:Generated_Source\PSoC4/Volt_Regulator.c ****     Volt_Regulator_SAR_RANGE_THRES_REG |= lowLimit & Volt_Regulator_RANGE_LOW_MASK;
 537              		.loc 1 596 0
 538 000a 1368     		ldr	r3, [r2]
 539 000c 0004     		lsls	r0, r0, #16
 540              	.LVL31:
 541 000e 000C     		lsrs	r0, r0, #16
 542 0010 1843     		orrs	r0, r3
 543 0012 1060     		str	r0, [r2]
 597:Generated_Source\PSoC4/Volt_Regulator.c **** }
 544              		.loc 1 597 0
 545              		@ sp needed
 546 0014 7047     		bx	lr
 547              	.L44:
 548 0016 C046     		.align	2
 549              	.L43:
 550 0018 18003A40 		.word	1077542936
 551              		.cfi_endproc
 552              	.LFE11:
 553              		.size	Volt_Regulator_SetLowLimit, .-Volt_Regulator_SetLowLimit
 554              		.section	.text.Volt_Regulator_SetHighLimit,"ax",%progbits
 555              		.align	2
 556              		.global	Volt_Regulator_SetHighLimit
 557              		.code	16
 558              		.thumb_func
 559              		.type	Volt_Regulator_SetHighLimit, %function
 560              	Volt_Regulator_SetHighLimit:
 561              	.LFB12:
 598:Generated_Source\PSoC4/Volt_Regulator.c **** 
 599:Generated_Source\PSoC4/Volt_Regulator.c **** 
 600:Generated_Source\PSoC4/Volt_Regulator.c **** /*******************************************************************************
 601:Generated_Source\PSoC4/Volt_Regulator.c **** * Function Name: Volt_Regulator_SetHighLimit
 602:Generated_Source\PSoC4/Volt_Regulator.c **** ********************************************************************************
 603:Generated_Source\PSoC4/Volt_Regulator.c **** *
 604:Generated_Source\PSoC4/Volt_Regulator.c **** * Summary:
 605:Generated_Source\PSoC4/Volt_Regulator.c **** *  Sets the low limit parameter for a limit condition.
 606:Generated_Source\PSoC4/Volt_Regulator.c **** *
 607:Generated_Source\PSoC4/Volt_Regulator.c **** * Parameters:
 608:Generated_Source\PSoC4/Volt_Regulator.c **** *  highLimit: The high limit for a limit condition.
 609:Generated_Source\PSoC4/Volt_Regulator.c **** *
 610:Generated_Source\PSoC4/Volt_Regulator.c **** * Return:
 611:Generated_Source\PSoC4/Volt_Regulator.c **** *  None.
 612:Generated_Source\PSoC4/Volt_Regulator.c **** *
 613:Generated_Source\PSoC4/Volt_Regulator.c **** *******************************************************************************/
 614:Generated_Source\PSoC4/Volt_Regulator.c **** void Volt_Regulator_SetHighLimit(uint32 highLimit)
 615:Generated_Source\PSoC4/Volt_Regulator.c **** {
 562              		.loc 1 615 0
 563              		.cfi_startproc
 564              		@ args = 0, pretend = 0, frame = 0
 565              		@ frame_needed = 0, uses_anonymous_args = 0
 566              		@ link register save eliminated.
 567              	.LVL32:
 616:Generated_Source\PSoC4/Volt_Regulator.c ****     Volt_Regulator_SAR_RANGE_THRES_REG &= (uint32)(~Volt_Regulator_RANGE_HIGH_MASK);
 568              		.loc 1 616 0
 569 0000 044A     		ldr	r2, .L46
 570 0002 1368     		ldr	r3, [r2]
ARM GAS  C:\Users\sergio\AppData\Local\Temp\cckIYZNb.s 			page 22


 571 0004 1B04     		lsls	r3, r3, #16
 572 0006 1B0C     		lsrs	r3, r3, #16
 573 0008 1360     		str	r3, [r2]
 617:Generated_Source\PSoC4/Volt_Regulator.c ****     Volt_Regulator_SAR_RANGE_THRES_REG |= (uint32)(highLimit << Volt_Regulator_RANGE_HIGH_OFFSET);
 574              		.loc 1 617 0
 575 000a 1368     		ldr	r3, [r2]
 576 000c 0004     		lsls	r0, r0, #16
 577              	.LVL33:
 578 000e 1843     		orrs	r0, r3
 579 0010 1060     		str	r0, [r2]
 618:Generated_Source\PSoC4/Volt_Regulator.c **** }
 580              		.loc 1 618 0
 581              		@ sp needed
 582 0012 7047     		bx	lr
 583              	.L47:
 584              		.align	2
 585              	.L46:
 586 0014 18003A40 		.word	1077542936
 587              		.cfi_endproc
 588              	.LFE12:
 589              		.size	Volt_Regulator_SetHighLimit, .-Volt_Regulator_SetHighLimit
 590              		.section	.text.Volt_Regulator_SetLimitMask,"ax",%progbits
 591              		.align	2
 592              		.global	Volt_Regulator_SetLimitMask
 593              		.code	16
 594              		.thumb_func
 595              		.type	Volt_Regulator_SetLimitMask, %function
 596              	Volt_Regulator_SetLimitMask:
 597              	.LFB13:
 619:Generated_Source\PSoC4/Volt_Regulator.c **** 
 620:Generated_Source\PSoC4/Volt_Regulator.c **** 
 621:Generated_Source\PSoC4/Volt_Regulator.c **** /*******************************************************************************
 622:Generated_Source\PSoC4/Volt_Regulator.c **** * Function Name: Volt_Regulator_SetLimitMask
 623:Generated_Source\PSoC4/Volt_Regulator.c **** ********************************************************************************
 624:Generated_Source\PSoC4/Volt_Regulator.c **** *
 625:Generated_Source\PSoC4/Volt_Regulator.c **** * Summary:
 626:Generated_Source\PSoC4/Volt_Regulator.c **** *  Sets the channel limit condition mask.
 627:Generated_Source\PSoC4/Volt_Regulator.c **** *
 628:Generated_Source\PSoC4/Volt_Regulator.c **** * Parameters:
 629:Generated_Source\PSoC4/Volt_Regulator.c **** *  mask: Sets which channels that may cause a
 630:Generated_Source\PSoC4/Volt_Regulator.c **** *  limit condition interrupt. Setting bits for channels that do not exist
 631:Generated_Source\PSoC4/Volt_Regulator.c **** *  will have no effect. For example, if only 6 channels were enabled,
 632:Generated_Source\PSoC4/Volt_Regulator.c **** *  setting a mask of 0x0103 would only enable the last two channels (0 and 1).
 633:Generated_Source\PSoC4/Volt_Regulator.c **** *
 634:Generated_Source\PSoC4/Volt_Regulator.c **** * Return:
 635:Generated_Source\PSoC4/Volt_Regulator.c **** *  None.
 636:Generated_Source\PSoC4/Volt_Regulator.c **** *
 637:Generated_Source\PSoC4/Volt_Regulator.c **** *******************************************************************************/
 638:Generated_Source\PSoC4/Volt_Regulator.c **** void Volt_Regulator_SetLimitMask(uint32 mask)
 639:Generated_Source\PSoC4/Volt_Regulator.c **** {
 598              		.loc 1 639 0
 599              		.cfi_startproc
 600              		@ args = 0, pretend = 0, frame = 0
 601              		@ frame_needed = 0, uses_anonymous_args = 0
 602              		@ link register save eliminated.
 603              	.LVL34:
 640:Generated_Source\PSoC4/Volt_Regulator.c ****     Volt_Regulator_SAR_RANGE_INTR_MASK_REG = mask & Volt_Regulator_MAX_CHANNELS_EN_MASK;
ARM GAS  C:\Users\sergio\AppData\Local\Temp\cckIYZNb.s 			page 23


 604              		.loc 1 640 0
 605 0000 0123     		movs	r3, #1
 606 0002 1840     		ands	r0, r3
 607              	.LVL35:
 608 0004 014B     		ldr	r3, .L49
 609 0006 1860     		str	r0, [r3]
 641:Generated_Source\PSoC4/Volt_Regulator.c **** }
 610              		.loc 1 641 0
 611              		@ sp needed
 612 0008 7047     		bx	lr
 613              	.L50:
 614 000a C046     		.align	2
 615              	.L49:
 616 000c 38023A40 		.word	1077543480
 617              		.cfi_endproc
 618              	.LFE13:
 619              		.size	Volt_Regulator_SetLimitMask, .-Volt_Regulator_SetLimitMask
 620              		.section	.text.Volt_Regulator_SetSatMask,"ax",%progbits
 621              		.align	2
 622              		.global	Volt_Regulator_SetSatMask
 623              		.code	16
 624              		.thumb_func
 625              		.type	Volt_Regulator_SetSatMask, %function
 626              	Volt_Regulator_SetSatMask:
 627              	.LFB14:
 642:Generated_Source\PSoC4/Volt_Regulator.c **** 
 643:Generated_Source\PSoC4/Volt_Regulator.c **** 
 644:Generated_Source\PSoC4/Volt_Regulator.c **** /*******************************************************************************
 645:Generated_Source\PSoC4/Volt_Regulator.c **** * Function Name: Volt_Regulator_SetSatMask
 646:Generated_Source\PSoC4/Volt_Regulator.c **** ********************************************************************************
 647:Generated_Source\PSoC4/Volt_Regulator.c **** *
 648:Generated_Source\PSoC4/Volt_Regulator.c **** * Summary:
 649:Generated_Source\PSoC4/Volt_Regulator.c **** *  Sets the channel saturation event mask.
 650:Generated_Source\PSoC4/Volt_Regulator.c **** *
 651:Generated_Source\PSoC4/Volt_Regulator.c **** * Parameters:
 652:Generated_Source\PSoC4/Volt_Regulator.c **** *  mask: Sets which channels that may cause a
 653:Generated_Source\PSoC4/Volt_Regulator.c **** *  saturation event interrupt. Setting bits for channels that do not exist
 654:Generated_Source\PSoC4/Volt_Regulator.c **** *  will have no effect. For example, if only 8 channels were enabled,
 655:Generated_Source\PSoC4/Volt_Regulator.c **** *  setting a mask of 0x01C0 would only enable two channels (6 and 7).
 656:Generated_Source\PSoC4/Volt_Regulator.c **** *
 657:Generated_Source\PSoC4/Volt_Regulator.c **** * Return:
 658:Generated_Source\PSoC4/Volt_Regulator.c **** *  None.
 659:Generated_Source\PSoC4/Volt_Regulator.c **** *
 660:Generated_Source\PSoC4/Volt_Regulator.c **** *******************************************************************************/
 661:Generated_Source\PSoC4/Volt_Regulator.c **** void Volt_Regulator_SetSatMask(uint32 mask)
 662:Generated_Source\PSoC4/Volt_Regulator.c **** {
 628              		.loc 1 662 0
 629              		.cfi_startproc
 630              		@ args = 0, pretend = 0, frame = 0
 631              		@ frame_needed = 0, uses_anonymous_args = 0
 632              		@ link register save eliminated.
 633              	.LVL36:
 663:Generated_Source\PSoC4/Volt_Regulator.c ****     Volt_Regulator_SAR_SATURATE_INTR_MASK_REG = mask & Volt_Regulator_MAX_CHANNELS_EN_MASK;
 634              		.loc 1 663 0
 635 0000 0123     		movs	r3, #1
 636 0002 1840     		ands	r0, r3
 637              	.LVL37:
ARM GAS  C:\Users\sergio\AppData\Local\Temp\cckIYZNb.s 			page 24


 638 0004 014B     		ldr	r3, .L52
 639 0006 1860     		str	r0, [r3]
 664:Generated_Source\PSoC4/Volt_Regulator.c **** }
 640              		.loc 1 664 0
 641              		@ sp needed
 642 0008 7047     		bx	lr
 643              	.L53:
 644 000a C046     		.align	2
 645              	.L52:
 646 000c 28023A40 		.word	1077543464
 647              		.cfi_endproc
 648              	.LFE14:
 649              		.size	Volt_Regulator_SetSatMask, .-Volt_Regulator_SetSatMask
 650              		.section	.text.Volt_Regulator_SetOffset,"ax",%progbits
 651              		.align	2
 652              		.global	Volt_Regulator_SetOffset
 653              		.code	16
 654              		.thumb_func
 655              		.type	Volt_Regulator_SetOffset, %function
 656              	Volt_Regulator_SetOffset:
 657              	.LFB15:
 665:Generated_Source\PSoC4/Volt_Regulator.c **** 
 666:Generated_Source\PSoC4/Volt_Regulator.c **** 
 667:Generated_Source\PSoC4/Volt_Regulator.c **** /*******************************************************************************
 668:Generated_Source\PSoC4/Volt_Regulator.c **** * Function Name: Volt_Regulator_SetOffset
 669:Generated_Source\PSoC4/Volt_Regulator.c **** ********************************************************************************
 670:Generated_Source\PSoC4/Volt_Regulator.c **** *
 671:Generated_Source\PSoC4/Volt_Regulator.c **** * Summary:
 672:Generated_Source\PSoC4/Volt_Regulator.c **** *   Description: Sets the ADC offset which is used by the functions
 673:Generated_Source\PSoC4/Volt_Regulator.c **** *   ADC_CountsTo_uVolts, ADC_CountsTo_mVolts and ADC_CountsTo_Volts
 674:Generated_Source\PSoC4/Volt_Regulator.c **** *   to substract the offset from the given reading
 675:Generated_Source\PSoC4/Volt_Regulator.c **** *   before calculating the voltage conversion.
 676:Generated_Source\PSoC4/Volt_Regulator.c **** *
 677:Generated_Source\PSoC4/Volt_Regulator.c **** * Parameters:
 678:Generated_Source\PSoC4/Volt_Regulator.c **** *  chan: ADC channel number.
 679:Generated_Source\PSoC4/Volt_Regulator.c **** *  offset: This value is a measured value when the
 680:Generated_Source\PSoC4/Volt_Regulator.c **** *          inputs are shorted or connected to the same input voltage.
 681:Generated_Source\PSoC4/Volt_Regulator.c **** *
 682:Generated_Source\PSoC4/Volt_Regulator.c **** * Return:
 683:Generated_Source\PSoC4/Volt_Regulator.c **** *  None.
 684:Generated_Source\PSoC4/Volt_Regulator.c **** *
 685:Generated_Source\PSoC4/Volt_Regulator.c **** * Global variables:
 686:Generated_Source\PSoC4/Volt_Regulator.c **** *  Volt_Regulator_Offset:  Modified to set the user provided offset.
 687:Generated_Source\PSoC4/Volt_Regulator.c **** *
 688:Generated_Source\PSoC4/Volt_Regulator.c **** *******************************************************************************/
 689:Generated_Source\PSoC4/Volt_Regulator.c **** void Volt_Regulator_SetOffset(uint32 chan, int16 offset)
 690:Generated_Source\PSoC4/Volt_Regulator.c **** {
 658              		.loc 1 690 0
 659              		.cfi_startproc
 660              		@ args = 0, pretend = 0, frame = 0
 661              		@ frame_needed = 0, uses_anonymous_args = 0
 662              	.LVL38:
 663 0000 70B5     		push	{r4, r5, r6, lr}
 664              		.cfi_def_cfa_offset 16
 665              		.cfi_offset 4, -16
 666              		.cfi_offset 5, -12
 667              		.cfi_offset 6, -8
ARM GAS  C:\Users\sergio\AppData\Local\Temp\cckIYZNb.s 			page 25


 668              		.cfi_offset 14, -4
 669 0002 0400     		movs	r4, r0
 670 0004 0D00     		movs	r5, r1
 691:Generated_Source\PSoC4/Volt_Regulator.c ****     /* Halt CPU in debug mode if channel is out of valid range */
 692:Generated_Source\PSoC4/Volt_Regulator.c ****     CYASSERT(chan < Volt_Regulator_TOTAL_CHANNELS_NUM);
 671              		.loc 1 692 0
 672 0006 0028     		cmp	r0, #0
 673 0008 02D0     		beq	.L55
 674              		.loc 1 692 0 is_stmt 0 discriminator 1
 675 000a 0020     		movs	r0, #0
 676              	.LVL39:
 677 000c FFF7FEFF 		bl	CyHalt
 678              	.LVL40:
 679              	.L55:
 693:Generated_Source\PSoC4/Volt_Regulator.c **** 
 694:Generated_Source\PSoC4/Volt_Regulator.c ****     Volt_Regulator_offset[chan] = offset;
 680              		.loc 1 694 0 is_stmt 1
 681 0010 6400     		lsls	r4, r4, #1
 682              	.LVL41:
 683 0012 014B     		ldr	r3, .L56
 684 0014 E552     		strh	r5, [r4, r3]
 695:Generated_Source\PSoC4/Volt_Regulator.c **** }
 685              		.loc 1 695 0
 686              		@ sp needed
 687 0016 70BD     		pop	{r4, r5, r6, pc}
 688              	.L57:
 689              		.align	2
 690              	.L56:
 691 0018 00000000 		.word	Volt_Regulator_offset
 692              		.cfi_endproc
 693              	.LFE15:
 694              		.size	Volt_Regulator_SetOffset, .-Volt_Regulator_SetOffset
 695              		.section	.text.Volt_Regulator_SetGain,"ax",%progbits
 696              		.align	2
 697              		.global	Volt_Regulator_SetGain
 698              		.code	16
 699              		.thumb_func
 700              		.type	Volt_Regulator_SetGain, %function
 701              	Volt_Regulator_SetGain:
 702              	.LFB16:
 696:Generated_Source\PSoC4/Volt_Regulator.c **** 
 697:Generated_Source\PSoC4/Volt_Regulator.c **** 
 698:Generated_Source\PSoC4/Volt_Regulator.c **** /*******************************************************************************
 699:Generated_Source\PSoC4/Volt_Regulator.c **** * Function Name: Volt_Regulator_SetGain
 700:Generated_Source\PSoC4/Volt_Regulator.c **** ********************************************************************************
 701:Generated_Source\PSoC4/Volt_Regulator.c **** *
 702:Generated_Source\PSoC4/Volt_Regulator.c **** * Summary:
 703:Generated_Source\PSoC4/Volt_Regulator.c **** *  Description: Sets the ADC gain in counts per 10 volt for the voltage
 704:Generated_Source\PSoC4/Volt_Regulator.c **** *  conversion functions below. This value is set by default by the
 705:Generated_Source\PSoC4/Volt_Regulator.c **** *  reference and input range settings. It should only be used to further
 706:Generated_Source\PSoC4/Volt_Regulator.c **** *  calibrate the ADC with a known input or if an external reference is
 707:Generated_Source\PSoC4/Volt_Regulator.c **** *  used. Affects the ADC_CountsTo_uVolts, ADC_CountsTo_mVolts
 708:Generated_Source\PSoC4/Volt_Regulator.c **** *  and ADC_CountsTo_Volts functions by supplying the correct
 709:Generated_Source\PSoC4/Volt_Regulator.c **** *  conversion between ADC counts and voltage.
 710:Generated_Source\PSoC4/Volt_Regulator.c **** *
 711:Generated_Source\PSoC4/Volt_Regulator.c **** * Parameters:
 712:Generated_Source\PSoC4/Volt_Regulator.c **** *  chan: ADC channel number.
ARM GAS  C:\Users\sergio\AppData\Local\Temp\cckIYZNb.s 			page 26


 713:Generated_Source\PSoC4/Volt_Regulator.c **** *  adcGain: ADC gain in counts per 10 volts.
 714:Generated_Source\PSoC4/Volt_Regulator.c **** *
 715:Generated_Source\PSoC4/Volt_Regulator.c **** * Return:
 716:Generated_Source\PSoC4/Volt_Regulator.c **** *  None.
 717:Generated_Source\PSoC4/Volt_Regulator.c **** *
 718:Generated_Source\PSoC4/Volt_Regulator.c **** * Global variables:
 719:Generated_Source\PSoC4/Volt_Regulator.c **** *  Volt_Regulator_CountsPer10Volt:  modified to set the ADC gain in counts
 720:Generated_Source\PSoC4/Volt_Regulator.c **** *   per 10 volt.
 721:Generated_Source\PSoC4/Volt_Regulator.c **** *
 722:Generated_Source\PSoC4/Volt_Regulator.c **** *******************************************************************************/
 723:Generated_Source\PSoC4/Volt_Regulator.c **** void Volt_Regulator_SetGain(uint32 chan, int32 adcGain)
 724:Generated_Source\PSoC4/Volt_Regulator.c **** {
 703              		.loc 1 724 0
 704              		.cfi_startproc
 705              		@ args = 0, pretend = 0, frame = 0
 706              		@ frame_needed = 0, uses_anonymous_args = 0
 707              	.LVL42:
 708 0000 70B5     		push	{r4, r5, r6, lr}
 709              		.cfi_def_cfa_offset 16
 710              		.cfi_offset 4, -16
 711              		.cfi_offset 5, -12
 712              		.cfi_offset 6, -8
 713              		.cfi_offset 14, -4
 714 0002 0400     		movs	r4, r0
 715 0004 0D00     		movs	r5, r1
 725:Generated_Source\PSoC4/Volt_Regulator.c ****     /* Halt CPU in debug mode if channel is out of valid range */
 726:Generated_Source\PSoC4/Volt_Regulator.c ****     CYASSERT(chan < Volt_Regulator_TOTAL_CHANNELS_NUM);
 716              		.loc 1 726 0
 717 0006 0028     		cmp	r0, #0
 718 0008 02D0     		beq	.L59
 719              		.loc 1 726 0 is_stmt 0 discriminator 1
 720 000a 0020     		movs	r0, #0
 721              	.LVL43:
 722 000c FFF7FEFF 		bl	CyHalt
 723              	.LVL44:
 724              	.L59:
 727:Generated_Source\PSoC4/Volt_Regulator.c **** 
 728:Generated_Source\PSoC4/Volt_Regulator.c ****     Volt_Regulator_countsPer10Volt[chan] = adcGain;
 725              		.loc 1 728 0 is_stmt 1
 726 0010 A400     		lsls	r4, r4, #2
 727              	.LVL45:
 728 0012 014B     		ldr	r3, .L60
 729 0014 E550     		str	r5, [r4, r3]
 729:Generated_Source\PSoC4/Volt_Regulator.c **** }
 730              		.loc 1 729 0
 731              		@ sp needed
 732              	.LVL46:
 733 0016 70BD     		pop	{r4, r5, r6, pc}
 734              	.L61:
 735              		.align	2
 736              	.L60:
 737 0018 00000000 		.word	Volt_Regulator_countsPer10Volt
 738              		.cfi_endproc
 739              	.LFE16:
 740              		.size	Volt_Regulator_SetGain, .-Volt_Regulator_SetGain
 741              		.global	__aeabi_idiv
 742              		.section	.text.Volt_Regulator_CountsTo_mVolts,"ax",%progbits
ARM GAS  C:\Users\sergio\AppData\Local\Temp\cckIYZNb.s 			page 27


 743              		.align	2
 744              		.global	Volt_Regulator_CountsTo_mVolts
 745              		.code	16
 746              		.thumb_func
 747              		.type	Volt_Regulator_CountsTo_mVolts, %function
 748              	Volt_Regulator_CountsTo_mVolts:
 749              	.LFB17:
 730:Generated_Source\PSoC4/Volt_Regulator.c **** 
 731:Generated_Source\PSoC4/Volt_Regulator.c **** 
 732:Generated_Source\PSoC4/Volt_Regulator.c **** #if(Volt_Regulator_DEFAULT_JUSTIFICATION_SEL == Volt_Regulator__RIGHT)
 733:Generated_Source\PSoC4/Volt_Regulator.c **** 
 734:Generated_Source\PSoC4/Volt_Regulator.c **** 
 735:Generated_Source\PSoC4/Volt_Regulator.c ****     /*******************************************************************************
 736:Generated_Source\PSoC4/Volt_Regulator.c ****     * Function Name: Volt_Regulator_CountsTo_mVolts
 737:Generated_Source\PSoC4/Volt_Regulator.c ****     ********************************************************************************
 738:Generated_Source\PSoC4/Volt_Regulator.c ****     *
 739:Generated_Source\PSoC4/Volt_Regulator.c ****     * Summary:
 740:Generated_Source\PSoC4/Volt_Regulator.c ****     *  This function converts ADC counts to mVolts
 741:Generated_Source\PSoC4/Volt_Regulator.c ****     *  This function is not available when left data format justification selected.
 742:Generated_Source\PSoC4/Volt_Regulator.c ****     *
 743:Generated_Source\PSoC4/Volt_Regulator.c ****     * Parameters:
 744:Generated_Source\PSoC4/Volt_Regulator.c ****     *  chan: The ADC channel number.
 745:Generated_Source\PSoC4/Volt_Regulator.c ****     *  adcCounts: Result from the ADC conversion
 746:Generated_Source\PSoC4/Volt_Regulator.c ****     *
 747:Generated_Source\PSoC4/Volt_Regulator.c ****     * Return:
 748:Generated_Source\PSoC4/Volt_Regulator.c ****     *  Results in mVolts
 749:Generated_Source\PSoC4/Volt_Regulator.c ****     *
 750:Generated_Source\PSoC4/Volt_Regulator.c ****     * Global variables:
 751:Generated_Source\PSoC4/Volt_Regulator.c ****     *  Volt_Regulator_countsPer10Volt:  used to convert ADC counts to mVolts.
 752:Generated_Source\PSoC4/Volt_Regulator.c ****     *  Volt_Regulator_Offset:  Used as the offset while converting ADC counts
 753:Generated_Source\PSoC4/Volt_Regulator.c ****     *   to mVolts.
 754:Generated_Source\PSoC4/Volt_Regulator.c ****     *
 755:Generated_Source\PSoC4/Volt_Regulator.c ****     *******************************************************************************/
 756:Generated_Source\PSoC4/Volt_Regulator.c ****     int16 Volt_Regulator_CountsTo_mVolts(uint32 chan, int16 adcCounts)
 757:Generated_Source\PSoC4/Volt_Regulator.c ****     {
 750              		.loc 1 757 0
 751              		.cfi_startproc
 752              		@ args = 0, pretend = 0, frame = 0
 753              		@ frame_needed = 0, uses_anonymous_args = 0
 754              	.LVL47:
 755 0000 70B5     		push	{r4, r5, r6, lr}
 756              		.cfi_def_cfa_offset 16
 757              		.cfi_offset 4, -16
 758              		.cfi_offset 5, -12
 759              		.cfi_offset 6, -8
 760              		.cfi_offset 14, -4
 761 0002 0400     		movs	r4, r0
 762 0004 0D00     		movs	r5, r1
 758:Generated_Source\PSoC4/Volt_Regulator.c ****         int16 mVolts;
 759:Generated_Source\PSoC4/Volt_Regulator.c **** 
 760:Generated_Source\PSoC4/Volt_Regulator.c ****         /* Halt CPU in debug mode if channel is out of valid range */
 761:Generated_Source\PSoC4/Volt_Regulator.c ****         CYASSERT(chan < Volt_Regulator_TOTAL_CHANNELS_NUM);
 763              		.loc 1 761 0
 764 0006 0028     		cmp	r0, #0
 765 0008 02D0     		beq	.L63
 766              		.loc 1 761 0 is_stmt 0 discriminator 1
 767 000a 0020     		movs	r0, #0
ARM GAS  C:\Users\sergio\AppData\Local\Temp\cckIYZNb.s 			page 28


 768              	.LVL48:
 769 000c FFF7FEFF 		bl	CyHalt
 770              	.LVL49:
 771              	.L63:
 762:Generated_Source\PSoC4/Volt_Regulator.c **** 
 763:Generated_Source\PSoC4/Volt_Regulator.c ****         /* Divide the adcCount when accumulate averaging mode selected */
 764:Generated_Source\PSoC4/Volt_Regulator.c ****         #if(Volt_Regulator_DEFAULT_AVG_MODE == Volt_Regulator__ACCUMULATE)
 765:Generated_Source\PSoC4/Volt_Regulator.c ****             if((Volt_Regulator_channelsConfig[chan] & Volt_Regulator_AVERAGING_EN) != 0u)
 766:Generated_Source\PSoC4/Volt_Regulator.c ****             {
 767:Generated_Source\PSoC4/Volt_Regulator.c ****                 adcCounts /= Volt_Regulator_DEFAULT_AVG_SAMPLES_DIV;
 768:Generated_Source\PSoC4/Volt_Regulator.c ****             }
 769:Generated_Source\PSoC4/Volt_Regulator.c ****         #endif /* Volt_Regulator_DEFAULT_AVG_MODE == Volt_Regulator__ACCUMULATE */
 770:Generated_Source\PSoC4/Volt_Regulator.c **** 
 771:Generated_Source\PSoC4/Volt_Regulator.c ****         /* Subtract ADC offset */
 772:Generated_Source\PSoC4/Volt_Regulator.c ****         adcCounts -= Volt_Regulator_offset[chan];
 772              		.loc 1 772 0 is_stmt 1
 773 0010 6300     		lsls	r3, r4, #1
 774 0012 0F4A     		ldr	r2, .L66
 775 0014 995A     		ldrh	r1, [r3, r2]
 776 0016 09B2     		sxth	r1, r1
 777 0018 691A     		subs	r1, r5, r1
 778 001a 09B2     		sxth	r1, r1
 779              	.LVL50:
 773:Generated_Source\PSoC4/Volt_Regulator.c **** 
 774:Generated_Source\PSoC4/Volt_Regulator.c ****         mVolts = (int16)((((int32)adcCounts * Volt_Regulator_10MV_COUNTS) + ( (adcCounts > 0) ?
 780              		.loc 1 774 0
 781 001c 0D48     		ldr	r0, .L66+4
 782 001e 4843     		muls	r0, r1
 775:Generated_Source\PSoC4/Volt_Regulator.c ****                  (Volt_Regulator_countsPer10Volt[chan] / 2) : (-(Volt_Regulator_countsPer10Volt[cha
 783              		.loc 1 775 0
 784 0020 0029     		cmp	r1, #0
 785 0022 06DD     		ble	.L64
 786              		.loc 1 775 0 is_stmt 0 discriminator 1
 787 0024 A300     		lsls	r3, r4, #2
 788 0026 0C4A     		ldr	r2, .L66+8
 789 0028 9A58     		ldr	r2, [r3, r2]
 790 002a D30F     		lsrs	r3, r2, #31
 791 002c 9A18     		adds	r2, r3, r2
 792 002e 5310     		asrs	r3, r2, #1
 793 0030 06E0     		b	.L65
 794              	.L64:
 795              		.loc 1 775 0 discriminator 2
 796 0032 A300     		lsls	r3, r4, #2
 797 0034 084A     		ldr	r2, .L66+8
 798 0036 9A58     		ldr	r2, [r3, r2]
 799 0038 D30F     		lsrs	r3, r2, #31
 800 003a 9A18     		adds	r2, r3, r2
 801 003c 5210     		asrs	r2, r2, #1
 802 003e 5342     		rsbs	r3, r2, #0
 803              	.L65:
 774:Generated_Source\PSoC4/Volt_Regulator.c ****                  (Volt_Regulator_countsPer10Volt[chan] / 2) : (-(Volt_Regulator_countsPer10Volt[cha
 804              		.loc 1 774 0 is_stmt 1
 805 0040 1818     		adds	r0, r3, r0
 776:Generated_Source\PSoC4/Volt_Regulator.c ****                  / Volt_Regulator_countsPer10Volt[chan]);
 806              		.loc 1 776 0
 807 0042 A400     		lsls	r4, r4, #2
 808              	.LVL51:
ARM GAS  C:\Users\sergio\AppData\Local\Temp\cckIYZNb.s 			page 29


 809 0044 044B     		ldr	r3, .L66+8
 810 0046 E158     		ldr	r1, [r4, r3]
 811              	.LVL52:
 812 0048 FFF7FEFF 		bl	__aeabi_idiv
 813              	.LVL53:
 774:Generated_Source\PSoC4/Volt_Regulator.c ****                  (Volt_Regulator_countsPer10Volt[chan] / 2) : (-(Volt_Regulator_countsPer10Volt[cha
 814              		.loc 1 774 0
 815 004c 00B2     		sxth	r0, r0
 816              	.LVL54:
 777:Generated_Source\PSoC4/Volt_Regulator.c **** 
 778:Generated_Source\PSoC4/Volt_Regulator.c ****         return( mVolts );
 779:Generated_Source\PSoC4/Volt_Regulator.c ****     }
 817              		.loc 1 779 0
 818              		@ sp needed
 819 004e 70BD     		pop	{r4, r5, r6, pc}
 820              	.L67:
 821              		.align	2
 822              	.L66:
 823 0050 00000000 		.word	Volt_Regulator_offset
 824 0054 10270000 		.word	10000
 825 0058 00000000 		.word	Volt_Regulator_countsPer10Volt
 826              		.cfi_endproc
 827              	.LFE17:
 828              		.size	Volt_Regulator_CountsTo_mVolts, .-Volt_Regulator_CountsTo_mVolts
 829              		.global	__aeabi_lmul
 830              		.global	__aeabi_ldivmod
 831              		.section	.text.Volt_Regulator_CountsTo_uVolts,"ax",%progbits
 832              		.align	2
 833              		.global	Volt_Regulator_CountsTo_uVolts
 834              		.code	16
 835              		.thumb_func
 836              		.type	Volt_Regulator_CountsTo_uVolts, %function
 837              	Volt_Regulator_CountsTo_uVolts:
 838              	.LFB18:
 780:Generated_Source\PSoC4/Volt_Regulator.c **** 
 781:Generated_Source\PSoC4/Volt_Regulator.c **** 
 782:Generated_Source\PSoC4/Volt_Regulator.c ****     /*******************************************************************************
 783:Generated_Source\PSoC4/Volt_Regulator.c ****     * Function Name: Volt_Regulator_CountsTo_uVolts
 784:Generated_Source\PSoC4/Volt_Regulator.c ****     ********************************************************************************
 785:Generated_Source\PSoC4/Volt_Regulator.c ****     *
 786:Generated_Source\PSoC4/Volt_Regulator.c ****     * Summary:
 787:Generated_Source\PSoC4/Volt_Regulator.c ****     *  This function converts ADC counts to micro Volts
 788:Generated_Source\PSoC4/Volt_Regulator.c ****     *  This function is not available when left data format justification selected.
 789:Generated_Source\PSoC4/Volt_Regulator.c ****     *
 790:Generated_Source\PSoC4/Volt_Regulator.c ****     * Parameters:
 791:Generated_Source\PSoC4/Volt_Regulator.c ****     *  chan: The ADC channel number.
 792:Generated_Source\PSoC4/Volt_Regulator.c ****     *  adcCounts: Result from the ADC conversion
 793:Generated_Source\PSoC4/Volt_Regulator.c ****     *
 794:Generated_Source\PSoC4/Volt_Regulator.c ****     * Return:
 795:Generated_Source\PSoC4/Volt_Regulator.c ****     *  Results in uVolts
 796:Generated_Source\PSoC4/Volt_Regulator.c ****     *
 797:Generated_Source\PSoC4/Volt_Regulator.c ****     * Global variables:
 798:Generated_Source\PSoC4/Volt_Regulator.c ****     *  Volt_Regulator_countsPer10Volt:  used to convert ADC counts to uVolts.
 799:Generated_Source\PSoC4/Volt_Regulator.c ****     *  Volt_Regulator_Offset:  Used as the offset while converting ADC counts
 800:Generated_Source\PSoC4/Volt_Regulator.c ****     *   to mVolts.
 801:Generated_Source\PSoC4/Volt_Regulator.c ****     *
 802:Generated_Source\PSoC4/Volt_Regulator.c ****     * Theory:
ARM GAS  C:\Users\sergio\AppData\Local\Temp\cckIYZNb.s 			page 30


 803:Generated_Source\PSoC4/Volt_Regulator.c ****     *  Care must be taken to not exceed the maximum value for a 31 bit signed
 804:Generated_Source\PSoC4/Volt_Regulator.c ****     *  number in the conversion to uVolts and at the same time not loose
 805:Generated_Source\PSoC4/Volt_Regulator.c ****     *  resolution.
 806:Generated_Source\PSoC4/Volt_Regulator.c ****     *  To convert adcCounts to microVolts it is required to be multiplied
 807:Generated_Source\PSoC4/Volt_Regulator.c ****     *  on 10 million and later divide on gain in counts per 10V.
 808:Generated_Source\PSoC4/Volt_Regulator.c ****     *
 809:Generated_Source\PSoC4/Volt_Regulator.c ****     *******************************************************************************/
 810:Generated_Source\PSoC4/Volt_Regulator.c ****     int32 Volt_Regulator_CountsTo_uVolts(uint32 chan, int16 adcCounts)
 811:Generated_Source\PSoC4/Volt_Regulator.c ****     {
 839              		.loc 1 811 0
 840              		.cfi_startproc
 841              		@ args = 0, pretend = 0, frame = 0
 842              		@ frame_needed = 0, uses_anonymous_args = 0
 843              	.LVL55:
 844 0000 70B5     		push	{r4, r5, r6, lr}
 845              		.cfi_def_cfa_offset 16
 846              		.cfi_offset 4, -16
 847              		.cfi_offset 5, -12
 848              		.cfi_offset 6, -8
 849              		.cfi_offset 14, -4
 850 0002 0500     		movs	r5, r0
 851 0004 0C00     		movs	r4, r1
 812:Generated_Source\PSoC4/Volt_Regulator.c ****         int64 uVolts;
 813:Generated_Source\PSoC4/Volt_Regulator.c **** 
 814:Generated_Source\PSoC4/Volt_Regulator.c ****         /* Halt CPU in debug mode if channel is out of valid range */
 815:Generated_Source\PSoC4/Volt_Regulator.c ****         CYASSERT(chan < Volt_Regulator_TOTAL_CHANNELS_NUM);
 852              		.loc 1 815 0
 853 0006 0028     		cmp	r0, #0
 854 0008 02D0     		beq	.L69
 855              		.loc 1 815 0 is_stmt 0 discriminator 1
 856 000a 0020     		movs	r0, #0
 857              	.LVL56:
 858 000c FFF7FEFF 		bl	CyHalt
 859              	.LVL57:
 860              	.L69:
 816:Generated_Source\PSoC4/Volt_Regulator.c **** 
 817:Generated_Source\PSoC4/Volt_Regulator.c ****         /* Divide the adcCount when accumulate averaging mode selected */
 818:Generated_Source\PSoC4/Volt_Regulator.c ****         #if(Volt_Regulator_DEFAULT_AVG_MODE == Volt_Regulator__ACCUMULATE)
 819:Generated_Source\PSoC4/Volt_Regulator.c ****             if((Volt_Regulator_channelsConfig[chan] & Volt_Regulator_AVERAGING_EN) != 0u)
 820:Generated_Source\PSoC4/Volt_Regulator.c ****             {
 821:Generated_Source\PSoC4/Volt_Regulator.c ****                 adcCounts /= Volt_Regulator_DEFAULT_AVG_SAMPLES_DIV;
 822:Generated_Source\PSoC4/Volt_Regulator.c ****             }
 823:Generated_Source\PSoC4/Volt_Regulator.c ****         #endif /* Volt_Regulator_DEFAULT_AVG_MODE == Volt_Regulator__ACCUMULATE */
 824:Generated_Source\PSoC4/Volt_Regulator.c **** 
 825:Generated_Source\PSoC4/Volt_Regulator.c ****         /* Subtract ADC offset */
 826:Generated_Source\PSoC4/Volt_Regulator.c ****         adcCounts -= Volt_Regulator_offset[chan];
 861              		.loc 1 826 0 is_stmt 1
 862 0010 6A00     		lsls	r2, r5, #1
 863 0012 084B     		ldr	r3, .L70
 864 0014 D05A     		ldrh	r0, [r2, r3]
 865 0016 00B2     		sxth	r0, r0
 866 0018 201A     		subs	r0, r4, r0
 867 001a 00B2     		sxth	r0, r0
 868              	.LVL58:
 827:Generated_Source\PSoC4/Volt_Regulator.c **** 
 828:Generated_Source\PSoC4/Volt_Regulator.c ****         uVolts = ((int64)adcCounts * Volt_Regulator_10UV_COUNTS) / Volt_Regulator_countsPer10Volt[c
 869              		.loc 1 828 0
ARM GAS  C:\Users\sergio\AppData\Local\Temp\cckIYZNb.s 			page 31


 870 001c C117     		asrs	r1, r0, #31
 871 001e 064A     		ldr	r2, .L70+4
 872 0020 0023     		movs	r3, #0
 873 0022 FFF7FEFF 		bl	__aeabi_lmul
 874              	.LVL59:
 875 0026 AD00     		lsls	r5, r5, #2
 876              	.LVL60:
 877 0028 044B     		ldr	r3, .L70+8
 878 002a EA58     		ldr	r2, [r5, r3]
 879 002c D317     		asrs	r3, r2, #31
 880 002e FFF7FEFF 		bl	__aeabi_ldivmod
 881              	.LVL61:
 829:Generated_Source\PSoC4/Volt_Regulator.c **** 
 830:Generated_Source\PSoC4/Volt_Regulator.c ****         return( (int32)uVolts );
 831:Generated_Source\PSoC4/Volt_Regulator.c ****     }
 882              		.loc 1 831 0
 883              		@ sp needed
 884 0032 70BD     		pop	{r4, r5, r6, pc}
 885              	.L71:
 886              		.align	2
 887              	.L70:
 888 0034 00000000 		.word	Volt_Regulator_offset
 889 0038 80969800 		.word	10000000
 890 003c 00000000 		.word	Volt_Regulator_countsPer10Volt
 891              		.cfi_endproc
 892              	.LFE18:
 893              		.size	Volt_Regulator_CountsTo_uVolts, .-Volt_Regulator_CountsTo_uVolts
 894              		.global	__aeabi_i2f
 895              		.global	__aeabi_fmul
 896              		.global	__aeabi_fdiv
 897              		.section	.text.Volt_Regulator_CountsTo_Volts,"ax",%progbits
 898              		.align	2
 899              		.global	Volt_Regulator_CountsTo_Volts
 900              		.code	16
 901              		.thumb_func
 902              		.type	Volt_Regulator_CountsTo_Volts, %function
 903              	Volt_Regulator_CountsTo_Volts:
 904              	.LFB19:
 832:Generated_Source\PSoC4/Volt_Regulator.c **** 
 833:Generated_Source\PSoC4/Volt_Regulator.c **** 
 834:Generated_Source\PSoC4/Volt_Regulator.c ****     /*******************************************************************************
 835:Generated_Source\PSoC4/Volt_Regulator.c ****     * Function Name: Volt_Regulator_CountsTo_Volts
 836:Generated_Source\PSoC4/Volt_Regulator.c ****     ********************************************************************************
 837:Generated_Source\PSoC4/Volt_Regulator.c ****     *
 838:Generated_Source\PSoC4/Volt_Regulator.c ****     * Summary:
 839:Generated_Source\PSoC4/Volt_Regulator.c ****     *  Converts the ADC output to Volts as a floating point number.
 840:Generated_Source\PSoC4/Volt_Regulator.c ****     *  This function is not available when left data format justification selected.
 841:Generated_Source\PSoC4/Volt_Regulator.c ****     *
 842:Generated_Source\PSoC4/Volt_Regulator.c ****     * Parameters:
 843:Generated_Source\PSoC4/Volt_Regulator.c ****     *  chan: The ADC channel number.
 844:Generated_Source\PSoC4/Volt_Regulator.c ****     *  Result from the ADC conversion
 845:Generated_Source\PSoC4/Volt_Regulator.c ****     *
 846:Generated_Source\PSoC4/Volt_Regulator.c ****     * Return:
 847:Generated_Source\PSoC4/Volt_Regulator.c ****     *  Results in Volts
 848:Generated_Source\PSoC4/Volt_Regulator.c ****     *
 849:Generated_Source\PSoC4/Volt_Regulator.c ****     * Global variables:
 850:Generated_Source\PSoC4/Volt_Regulator.c ****     *  Volt_Regulator_countsPer10Volt:  used to convert ADC counts to Volts.
ARM GAS  C:\Users\sergio\AppData\Local\Temp\cckIYZNb.s 			page 32


 851:Generated_Source\PSoC4/Volt_Regulator.c ****     *  Volt_Regulator_Offset:  Used as the offset while converting ADC counts
 852:Generated_Source\PSoC4/Volt_Regulator.c ****     *   to mVolts.
 853:Generated_Source\PSoC4/Volt_Regulator.c ****     *
 854:Generated_Source\PSoC4/Volt_Regulator.c ****     *******************************************************************************/
 855:Generated_Source\PSoC4/Volt_Regulator.c ****     float32 Volt_Regulator_CountsTo_Volts(uint32 chan, int16 adcCounts)
 856:Generated_Source\PSoC4/Volt_Regulator.c ****     {
 905              		.loc 1 856 0
 906              		.cfi_startproc
 907              		@ args = 0, pretend = 0, frame = 0
 908              		@ frame_needed = 0, uses_anonymous_args = 0
 909              	.LVL62:
 910 0000 70B5     		push	{r4, r5, r6, lr}
 911              		.cfi_def_cfa_offset 16
 912              		.cfi_offset 4, -16
 913              		.cfi_offset 5, -12
 914              		.cfi_offset 6, -8
 915              		.cfi_offset 14, -4
 916 0002 0400     		movs	r4, r0
 917 0004 0D00     		movs	r5, r1
 857:Generated_Source\PSoC4/Volt_Regulator.c ****         float32 volts;
 858:Generated_Source\PSoC4/Volt_Regulator.c **** 
 859:Generated_Source\PSoC4/Volt_Regulator.c ****         /* Halt CPU in debug mode if channel is out of valid range */
 860:Generated_Source\PSoC4/Volt_Regulator.c ****         CYASSERT(chan < Volt_Regulator_TOTAL_CHANNELS_NUM);
 918              		.loc 1 860 0
 919 0006 0028     		cmp	r0, #0
 920 0008 02D0     		beq	.L73
 921              		.loc 1 860 0 is_stmt 0 discriminator 1
 922 000a 0020     		movs	r0, #0
 923              	.LVL63:
 924 000c FFF7FEFF 		bl	CyHalt
 925              	.LVL64:
 926              	.L73:
 861:Generated_Source\PSoC4/Volt_Regulator.c **** 
 862:Generated_Source\PSoC4/Volt_Regulator.c ****         /* Divide the adcCount when accumulate averaging mode selected */
 863:Generated_Source\PSoC4/Volt_Regulator.c ****         #if(Volt_Regulator_DEFAULT_AVG_MODE == Volt_Regulator__ACCUMULATE)
 864:Generated_Source\PSoC4/Volt_Regulator.c ****             if((Volt_Regulator_channelsConfig[chan] & Volt_Regulator_AVERAGING_EN) != 0u)
 865:Generated_Source\PSoC4/Volt_Regulator.c ****             {
 866:Generated_Source\PSoC4/Volt_Regulator.c ****                 adcCounts /= Volt_Regulator_DEFAULT_AVG_SAMPLES_DIV;
 867:Generated_Source\PSoC4/Volt_Regulator.c ****             }
 868:Generated_Source\PSoC4/Volt_Regulator.c ****         #endif /* Volt_Regulator_DEFAULT_AVG_MODE == Volt_Regulator__ACCUMULATE */
 869:Generated_Source\PSoC4/Volt_Regulator.c **** 
 870:Generated_Source\PSoC4/Volt_Regulator.c ****         /* Subtract ADC offset */
 871:Generated_Source\PSoC4/Volt_Regulator.c ****         adcCounts -= Volt_Regulator_offset[chan];
 927              		.loc 1 871 0 is_stmt 1
 928 0010 6200     		lsls	r2, r4, #1
 929 0012 0A4B     		ldr	r3, .L74
 930 0014 D05A     		ldrh	r0, [r2, r3]
 931 0016 00B2     		sxth	r0, r0
 932 0018 281A     		subs	r0, r5, r0
 933 001a 00B2     		sxth	r0, r0
 934              	.LVL65:
 872:Generated_Source\PSoC4/Volt_Regulator.c **** 
 873:Generated_Source\PSoC4/Volt_Regulator.c ****         volts = ((float32)adcCounts * Volt_Regulator_10V_COUNTS) / (float32)Volt_Regulator_countsPe
 935              		.loc 1 873 0
 936 001c FFF7FEFF 		bl	__aeabi_i2f
 937              	.LVL66:
 938 0020 0749     		ldr	r1, .L74+4
ARM GAS  C:\Users\sergio\AppData\Local\Temp\cckIYZNb.s 			page 33


 939 0022 FFF7FEFF 		bl	__aeabi_fmul
 940              	.LVL67:
 941 0026 051C     		adds	r5, r0, #0
 942 0028 A400     		lsls	r4, r4, #2
 943              	.LVL68:
 944 002a 064B     		ldr	r3, .L74+8
 945 002c E058     		ldr	r0, [r4, r3]
 946 002e FFF7FEFF 		bl	__aeabi_i2f
 947              	.LVL69:
 948 0032 011C     		adds	r1, r0, #0
 949 0034 281C     		adds	r0, r5, #0
 950 0036 FFF7FEFF 		bl	__aeabi_fdiv
 951              	.LVL70:
 874:Generated_Source\PSoC4/Volt_Regulator.c **** 
 875:Generated_Source\PSoC4/Volt_Regulator.c ****         return( volts );
 876:Generated_Source\PSoC4/Volt_Regulator.c ****     }
 952              		.loc 1 876 0
 953              		@ sp needed
 954 003a 70BD     		pop	{r4, r5, r6, pc}
 955              	.L75:
 956              		.align	2
 957              	.L74:
 958 003c 00000000 		.word	Volt_Regulator_offset
 959 0040 00002041 		.word	1092616192
 960 0044 00000000 		.word	Volt_Regulator_countsPer10Volt
 961              		.cfi_endproc
 962              	.LFE19:
 963              		.size	Volt_Regulator_CountsTo_Volts, .-Volt_Regulator_CountsTo_Volts
 964              		.comm	Volt_Regulator_countsPer10Volt,4,4
 965              		.comm	Volt_Regulator_offset,2,4
 966              		.global	Volt_Regulator_initVar
 967              		.bss
 968              		.set	.LANCHOR0,. + 0
 969              		.type	Volt_Regulator_initVar, %object
 970              		.size	Volt_Regulator_initVar, 1
 971              	Volt_Regulator_initVar:
 972 0000 00       		.space	1
 973              		.text
 974              	.Letext0:
 975              		.file 2 "Generated_Source\\PSoC4\\cytypes.h"
 976              		.file 3 "Generated_Source\\PSoC4\\CyLib.h"